(dp1
S'labels'
p2
cnumpy.core.multiarray
_reconstruct
p3
(cnumpy
ndarray
p4
(I0
tS'b'
tRp5
(I1
(I329
tcnumpy
dtype
p6
(S'i8'
I0
I1
tRp7
(I3
S'<'
NNNI-1
I-1
I0
tbI00
S'\x00\x00\x00\x00\x00\x00\x00\x00\x00\x00\x00\x00\x00\x00\x00\x00\x00\x00\x00\x00\x00\x00\x00\x00\x01\x00\x00\x00\x00\x00\x00\x00\x01\x00\x00\x00\x00\x00\x00\x00\x00\x00\x00\x00\x00\x00\x00\x00\x00\x00\x00\x00\x00\x00\x00\x00\x01\x00\x00\x00\x00\x00\x00\x00\x00\x00\x00\x00\x00\x00\x00\x00\x00\x00\x00\x00\x00\x00\x00\x00\x01\x00\x00\x00\x00\x00\x00\x00\x02\x00\x00\x00\x00\x00\x00\x00\x00\x00\x00\x00\x00\x00\x00\x00\x01\x00\x00\x00\x00\x00\x00\x00\x00\x00\x00\x00\x00\x00\x00\x00\x00\x00\x00\x00\x00\x00\x00\x00\x03\x00\x00\x00\x00\x00\x00\x00\x04\x00\x00\x00\x00\x00\x00\x00\x00\x00\x00\x00\x00\x00\x00\x00\x00\x00\x00\x00\x00\x00\x00\x00\x00\x00\x00\x00\x00\x00\x00\x00\x01\x00\x00\x00\x00\x00\x00\x00\x00\x00\x00\x00\x00\x00\x00\x00\x05\x00\x00\x00\x00\x00\x00\x00\x00\x00\x00\x00\x00\x00\x00\x00\x01\x00\x00\x00\x00\x00\x00\x00\x00\x00\x00\x00\x00\x00\x00\x00\x00\x00\x00\x00\x00\x00\x00\x00\x06\x00\x00\x00\x00\x00\x00\x00\x00\x00\x00\x00\x00\x00\x00\x00\x00\x00\x00\x00\x00\x00\x00\x00\x00\x00\x00\x00\x00\x00\x00\x00\x00\x00\x00\x00\x00\x00\x00\x00\x00\x00\x00\x00\x00\x00\x00\x00\x07\x00\x00\x00\x00\x00\x00\x00\x08\x00\x00\x00\x00\x00\x00\x00\x01\x00\x00\x00\x00\x00\x00\x00\x01\x00\x00\x00\x00\x00\x00\x00\x00\x00\x00\x00\x00\x00\x00\x00\x00\x00\x00\x00\x00\x00\x00\x00\x00\x00\x00\x00\x00\x00\x00\x00\x01\x00\x00\x00\x00\x00\x00\x00\t\x00\x00\x00\x00\x00\x00\x00\x02\x00\x00\x00\x00\x00\x00\x00\x00\x00\x00\x00\x00\x00\x00\x00\x00\x00\x00\x00\x00\x00\x00\x00\x03\x00\x00\x00\x00\x00\x00\x00\n\x00\x00\x00\x00\x00\x00\x00\x00\x00\x00\x00\x00\x00\x00\x00\x00\x00\x00\x00\x00\x00\x00\x00\x0b\x00\x00\x00\x00\x00\x00\x00\x00\x00\x00\x00\x00\x00\x00\x00\x00\x00\x00\x00\x00\x00\x00\x00\x06\x00\x00\x00\x00\x00\x00\x00\x01\x00\x00\x00\x00\x00\x00\x00\x0c\x00\x00\x00\x00\x00\x00\x00\x01\x00\x00\x00\x00\x00\x00\x00\r\x00\x00\x00\x00\x00\x00\x00\x0e\x00\x00\x00\x00\x00\x00\x00\x00\x00\x00\x00\x00\x00\x00\x00\x00\x00\x00\x00\x00\x00\x00\x00\x00\x00\x00\x00\x00\x00\x00\x00\x03\x00\x00\x00\x00\x00\x00\x00\x00\x00\x00\x00\x00\x00\x00\x00\x00\x00\x00\x00\x00\x00\x00\x00\x08\x00\x00\x00\x00\x00\x00\x00\x0f\x00\x00\x00\x00\x00\x00\x00\x00\x00\x00\x00\x00\x00\x00\x00\x00\x00\x00\x00\x00\x00\x00\x00\x00\x00\x00\x00\x00\x00\x00\x00\x00\x00\x00\x00\x00\x00\x00\x00\x01\x00\x00\x00\x00\x00\x00\x00\x10\x00\x00\x00\x00\x00\x00\x00\x06\x00\x00\x00\x00\x00\x00\x00\x11\x00\x00\x00\x00\x00\x00\x00\x00\x00\x00\x00\x00\x00\x00\x00\x00\x00\x00\x00\x00\x00\x00\x00\x12\x00\x00\x00\x00\x00\x00\x00\x00\x00\x00\x00\x00\x00\x00\x00\x00\x00\x00\x00\x00\x00\x00\x00\x13\x00\x00\x00\x00\x00\x00\x00\x00\x00\x00\x00\x00\x00\x00\x00\x00\x00\x00\x00\x00\x00\x00\x00\x01\x00\x00\x00\x00\x00\x00\x00\x00\x00\x00\x00\x00\x00\x00\x00\x00\x00\x00\x00\x00\x00\x00\x00\x12\x00\x00\x00\x00\x00\x00\x00\x00\x00\x00\x00\x00\x00\x00\x00\x00\x00\x00\x00\x00\x00\x00\x00\x0e\x00\x00\x00\x00\x00\x00\x00\x14\x00\x00\x00\x00\x00\x00\x00\x02\x00\x00\x00\x00\x00\x00\x00\x01\x00\x00\x00\x00\x00\x00\x00\r\x00\x00\x00\x00\x00\x00\x00\x01\x00\x00\x00\x00\x00\x00\x00\x12\x00\x00\x00\x00\x00\x00\x00\x11\x00\x00\x00\x00\x00\x00\x00\x00\x00\x00\x00\x00\x00\x00\x00\x00\x00\x00\x00\x00\x00\x00\x00\x01\x00\x00\x00\x00\x00\x00\x00\x00\x00\x00\x00\x00\x00\x00\x00\x02\x00\x00\x00\x00\x00\x00\x00\x00\x00\x00\x00\x00\x00\x00\x00\x06\x00\x00\x00\x00\x00\x00\x00\x00\x00\x00\x00\x00\x00\x00\x00\x00\x00\x00\x00\x00\x00\x00\x00\x05\x00\x00\x00\x00\x00\x00\x00\x00\x00\x00\x00\x00\x00\x00\x00\x00\x00\x00\x00\x00\x00\x00\x00\x05\x00\x00\x00\x00\x00\x00\x00\x05\x00\x00\x00\x00\x00\x00\x00\x15\x00\x00\x00\x00\x00\x00\x00\x00\x00\x00\x00\x00\x00\x00\x00\x00\x00\x00\x00\x00\x00\x00\x00\x00\x00\x00\x00\x00\x00\x00\x00\x00\x00\x00\x00\x00\x00\x00\x00\x16\x00\x00\x00\x00\x00\x00\x00\x02\x00\x00\x00\x00\x00\x00\x00\x06\x00\x00\x00\x00\x00\x00\x00\x00\x00\x00\x00\x00\x00\x00\x00\x00\x00\x00\x00\x00\x00\x00\x00\x0e\x00\x00\x00\x00\x00\x00\x00\x00\x00\x00\x00\x00\x00\x00\x00\x00\x00\x00\x00\x00\x00\x00\x00\x01\x00\x00\x00\x00\x00\x00\x00\x02\x00\x00\x00\x00\x00\x00\x00\x00\x00\x00\x00\x00\x00\x00\x00\x17\x00\x00\x00\x00\x00\x00\x00\x12\x00\x00\x00\x00\x00\x00\x00\x0c\x00\x00\x00\x00\x00\x00\x00\x00\x00\x00\x00\x00\x00\x00\x00\x00\x00\x00\x00\x00\x00\x00\x00\x00\x00\x00\x00\x00\x00\x00\x00\x14\x00\x00\x00\x00\x00\x00\x00\x02\x00\x00\x00\x00\x00\x00\x00\x00\x00\x00\x00\x00\x00\x00\x00\x00\x00\x00\x00\x00\x00\x00\x00\x03\x00\x00\x00\x00\x00\x00\x00\x00\x00\x00\x00\x00\x00\x00\x00\x02\x00\x00\x00\x00\x00\x00\x00\x14\x00\x00\x00\x00\x00\x00\x00\x00\x00\x00\x00\x00\x00\x00\x00\x00\x00\x00\x00\x00\x00\x00\x00\x03\x00\x00\x00\x00\x00\x00\x00\x00\x00\x00\x00\x00\x00\x00\x00\x13\x00\x00\x00\x00\x00\x00\x00\x15\x00\x00\x00\x00\x00\x00\x00\x00\x00\x00\x00\x00\x00\x00\x00\x00\x00\x00\x00\x00\x00\x00\x00\x00\x00\x00\x00\x00\x00\x00\x00\x01\x00\x00\x00\x00\x00\x00\x00\x01\x00\x00\x00\x00\x00\x00\x00\x00\x00\x00\x00\x00\x00\x00\x00\x03\x00\x00\x00\x00\x00\x00\x00\x00\x00\x00\x00\x00\x00\x00\x00\x00\x00\x00\x00\x00\x00\x00\x00\x03\x00\x00\x00\x00\x00\x00\x00\x01\x00\x00\x00\x00\x00\x00\x00\x0c\x00\x00\x00\x00\x00\x00\x00\x00\x00\x00\x00\x00\x00\x00\x00\x00\x00\x00\x00\x00\x00\x00\x00\x00\x00\x00\x00\x00\x00\x00\x00\x01\x00\x00\x00\x00\x00\x00\x00\x00\x00\x00\x00\x00\x00\x00\x00\x16\x00\x00\x00\x00\x00\x00\x00\x00\x00\x00\x00\x00\x00\x00\x00\x00\x00\x00\x00\x00\x00\x00\x00\x05\x00\x00\x00\x00\x00\x00\x00\x06\x00\x00\x00\x00\x00\x00\x00\x00\x00\x00\x00\x00\x00\x00\x00\x00\x00\x00\x00\x00\x00\x00\x00\x12\x00\x00\x00\x00\x00\x00\x00\x00\x00\x00\x00\x00\x00\x00\x00\x00\x00\x00\x00\x00\x00\x00\x00\x18\x00\x00\x00\x00\x00\x00\x00\x00\x00\x00\x00\x00\x00\x00\x00\x03\x00\x00\x00\x00\x00\x00\x00\x11\x00\x00\x00\x00\x00\x00\x00\x00\x00\x00\x00\x00\x00\x00\x00\x00\x00\x00\x00\x00\x00\x00\x00\x00\x00\x00\x00\x00\x00\x00\x00\x00\x00\x00\x00\x00\x00\x00\x00\x03\x00\x00\x00\x00\x00\x00\x00\x01\x00\x00\x00\x00\x00\x00\x00\x00\x00\x00\x00\x00\x00\x00\x00\x02\x00\x00\x00\x00\x00\x00\x00\x00\x00\x00\x00\x00\x00\x00\x00\x00\x00\x00\x00\x00\x00\x00\x00\x08\x00\x00\x00\x00\x00\x00\x00\x06\x00\x00\x00\x00\x00\x00\x00\x15\x00\x00\x00\x00\x00\x00\x00\x05\x00\x00\x00\x00\x00\x00\x00\x15\x00\x00\x00\x00\x00\x00\x00\x02\x00\x00\x00\x00\x00\x00\x00\x19\x00\x00\x00\x00\x00\x00\x00\x00\x00\x00\x00\x00\x00\x00\x00\x00\x00\x00\x00\x00\x00\x00\x00\x01\x00\x00\x00\x00\x00\x00\x00\x00\x00\x00\x00\x00\x00\x00\x00\x00\x00\x00\x00\x00\x00\x00\x00\x01\x00\x00\x00\x00\x00\x00\x00\x00\x00\x00\x00\x00\x00\x00\x00\x0e\x00\x00\x00\x00\x00\x00\x00\x00\x00\x00\x00\x00\x00\x00\x00\x03\x00\x00\x00\x00\x00\x00\x00\x12\x00\x00\x00\x00\x00\x00\x00\x00\x00\x00\x00\x00\x00\x00\x00\x00\x00\x00\x00\x00\x00\x00\x00\x03\x00\x00\x00\x00\x00\x00\x00\x00\x00\x00\x00\x00\x00\x00\x00\x02\x00\x00\x00\x00\x00\x00\x00\x0c\x00\x00\x00\x00\x00\x00\x00\x00\x00\x00\x00\x00\x00\x00\x00\x00\x00\x00\x00\x00\x00\x00\x00\x00\x00\x00\x00\x00\x00\x00\x00\x00\x00\x00\x00\x00\x00\x00\x00\x01\x00\x00\x00\x00\x00\x00\x00\x00\x00\x00\x00\x00\x00\x00\x00\x03\x00\x00\x00\x00\x00\x00\x00\x1a\x00\x00\x00\x00\x00\x00\x00\x01\x00\x00\x00\x00\x00\x00\x00\x00\x00\x00\x00\x00\x00\x00\x00\x00\x00\x00\x00\x00\x00\x00\x00\x1b\x00\x00\x00\x00\x00\x00\x00\x00\x00\x00\x00\x00\x00\x00\x00\x00\x00\x00\x00\x00\x00\x00\x00\x01\x00\x00\x00\x00\x00\x00\x00\x00\x00\x00\x00\x00\x00\x00\x00\x00\x00\x00\x00\x00\x00\x00\x00\x00\x00\x00\x00\x00\x00\x00\x00\x1a\x00\x00\x00\x00\x00\x00\x00\x06\x00\x00\x00\x00\x00\x00\x00\x0c\x00\x00\x00\x00\x00\x00\x00\x1c\x00\x00\x00\x00\x00\x00\x00\x00\x00\x00\x00\x00\x00\x00\x00\x00\x00\x00\x00\x00\x00\x00\x00\x07\x00\x00\x00\x00\x00\x00\x00\x00\x00\x00\x00\x00\x00\x00\x00\x00\x00\x00\x00\x00\x00\x00\x00\x01\x00\x00\x00\x00\x00\x00\x00\x00\x00\x00\x00\x00\x00\x00\x00\x03\x00\x00\x00\x00\x00\x00\x00\x00\x00\x00\x00\x00\x00\x00\x00\x00\x00\x00\x00\x00\x00\x00\x00\x1d\x00\x00\x00\x00\x00\x00\x00\x00\x00\x00\x00\x00\x00\x00\x00\x00\x00\x00\x00\x00\x00\x00\x00\x00\x00\x00\x00\x00\x00\x00\x00\x14\x00\x00\x00\x00\x00\x00\x00\x06\x00\x00\x00\x00\x00\x00\x00\x0c\x00\x00\x00\x00\x00\x00\x00\x01\x00\x00\x00\x00\x00\x00\x00\x1a\x00\x00\x00\x00\x00\x00\x00\x10\x00\x00\x00\x00\x00\x00\x00\x1e\x00\x00\x00\x00\x00\x00\x00\x05\x00\x00\x00\x00\x00\x00\x00\x05\x00\x00\x00\x00\x00\x00\x00\x05\x00\x00\x00\x00\x00\x00\x00\x00\x00\x00\x00\x00\x00\x00\x00\x00\x00\x00\x00\x00\x00\x00\x00\x00\x00\x00\x00\x00\x00\x00\x00\x01\x00\x00\x00\x00\x00\x00\x00\x18\x00\x00\x00\x00\x00\x00\x00\x00\x00\x00\x00\x00\x00\x00\x00\x00\x00\x00\x00\x00\x00\x00\x00\x00\x00\x00\x00\x00\x00\x00\x00\x01\x00\x00\x00\x00\x00\x00\x00\x00\x00\x00\x00\x00\x00\x00\x00\x02\x00\x00\x00\x00\x00\x00\x00\x00\x00\x00\x00\x00\x00\x00\x00\x1f\x00\x00\x00\x00\x00\x00\x00\x06\x00\x00\x00\x00\x00\x00\x00\x14\x00\x00\x00\x00\x00\x00\x00\x0c\x00\x00\x00\x00\x00\x00\x00 \x00\x00\x00\x00\x00\x00\x00\x00\x00\x00\x00\x00\x00\x00\x00\x00\x00\x00\x00\x00\x00\x00\x00\x06\x00\x00\x00\x00\x00\x00\x00\x00\x00\x00\x00\x00\x00\x00\x00\x00\x00\x00\x00\x00\x00\x00\x00\x01\x00\x00\x00\x00\x00\x00\x00\x00\x00\x00\x00\x00\x00\x00\x00\x02\x00\x00\x00\x00\x00\x00\x00\x00\x00\x00\x00\x00\x00\x00\x00\x05\x00\x00\x00\x00\x00\x00\x00\x01\x00\x00\x00\x00\x00\x00\x00\x00\x00\x00\x00\x00\x00\x00\x00\x00\x00\x00\x00\x00\x00\x00\x00\x06\x00\x00\x00\x00\x00\x00\x00\x00\x00\x00\x00\x00\x00\x00\x00\x00\x00\x00\x00\x00\x00\x00\x00\x00\x00\x00\x00\x00\x00\x00\x00\x01\x00\x00\x00\x00\x00\x00\x00\x00\x00\x00\x00\x00\x00\x00\x00\x02\x00\x00\x00\x00\x00\x00\x00\x06\x00\x00\x00\x00\x00\x00\x00\x00\x00\x00\x00\x00\x00\x00\x00\x00\x00\x00\x00\x00\x00\x00\x00\x01\x00\x00\x00\x00\x00\x00\x00\x00\x00\x00\x00\x00\x00\x00\x00\x03\x00\x00\x00\x00\x00\x00\x00\x11\x00\x00\x00\x00\x00\x00\x00\x01\x00\x00\x00\x00\x00\x00\x00\x01\x00\x00\x00\x00\x00\x00\x00\x00\x00\x00\x00\x00\x00\x00\x00\x00\x00\x00\x00\x00\x00\x00\x00\x0e\x00\x00\x00\x00\x00\x00\x00\x00\x00\x00\x00\x00\x00\x00\x00\x00\x00\x00\x00\x00\x00\x00\x00\x06\x00\x00\x00\x00\x00\x00\x00!\x00\x00\x00\x00\x00\x00\x00\x00\x00\x00\x00\x00\x00\x00\x00\x00\x00\x00\x00\x00\x00\x00\x00\x03\x00\x00\x00\x00\x00\x00\x00\x00\x00\x00\x00\x00\x00\x00\x00\x02\x00\x00\x00\x00\x00\x00\x00\x00\x00\x00\x00\x00\x00\x00\x00\x00\x00\x00\x00\x00\x00\x00\x00\x00\x00\x00\x00\x00\x00\x00\x00\x0e\x00\x00\x00\x00\x00\x00\x00\x00\x00\x00\x00\x00\x00\x00\x00\x02\x00\x00\x00\x00\x00\x00\x00\x00\x00\x00\x00\x00\x00\x00\x00\x06\x00\x00\x00\x00\x00\x00\x00\x02\x00\x00\x00\x00\x00\x00\x00"\x00\x00\x00\x00\x00\x00\x00\x01\x00\x00\x00\x00\x00\x00\x00\x01\x00\x00\x00\x00\x00\x00\x00#\x00\x00\x00\x00\x00\x00\x00'
tbsS'matrix'
p8
ccopy_reg
_reconstructor
p9
(cscipy.sparse.lil
lil_matrix
p10
c__builtin__
object
p11
NtRp12
(dp13
S'rows'
p14
g3
(g4
(I0
tS'b'
tRp15
(I1
(I329
tg6
(S'O8'
I0
I1
tRp16
(I3
S'|'
NNNI-1
I-1
I63
tbI00
(lp17
(lp18
I30
aI658
aI679
aI2138
aI2669
aI2918
aI3061
aa(lp19
I344
aI425
aI844
aI1227
aI1397
aI1413
aI1498
aI1552
aI1799
aI2313
aI2333
aI2649
aI2787
aI2887
aI2918
aI3409
aa(lp20
I45
aI176
aI262
aI290
aI397
aI468
aI529
aI567
aI902
aI980
aI1194
aI1472
aI1498
aI1680
aI1939
aI2000
aI2301
aI2313
aI2481
aI2596
aI2730
aI2804
aI2918
aI3060
aI3195
aI3300
aI3309
aI3365
aI3401
aa(lp21
I45
aI67
aI91
aI149
aI529
aI860
aI1498
aI1659
aI1777
aI1876
aI1971
aI2009
aI2463
aI2730
aI2931
aI3098
aI3227
aa(lp22
I45
aI529
aI568
aI980
aI1194
aI1939
aI2000
aI2009
aI2301
aI2310
aI2349
aI2578
aI2730
aI3060
aI3098
aI3195
aI3309
aa(lp23
I30
aI658
aI679
aI973
aI1590
aI2918
aI3188
aa(lp24
I56
aI390
aI453
aI705
aI844
aI1397
aI1413
aI1498
aI1578
aI1799
aI1950
aI2243
aI2313
aI2918
aI3220
aI3374
aa(lp25
I45
aI502
aI529
aI634
aI699
aI973
aI980
aI1035
aI1204
aI1434
aI1472
aI1498
aI1686
aI1741
aI1773
aI1939
aI2313
aI2481
aI2495
aI2594
aI2730
aI2747
aI2918
aI3039
aI3195
aI3259
aI3454
aI3595
aI3652
aa(lp26
I372
aI634
aI699
aI705
aI973
aI1397
aI1413
aI1686
aI1774
aI1799
aI2310
aI2349
aI2481
aI2594
aI2918
aI3129
aa(lp27
I116
aI149
aI224
aI339
aI529
aI905
aI959
aI1112
aI1409
aI1498
aI1610
aI1629
aI1761
aI1947
aI2130
aI2188
aI2313
aI2417
aI2463
aI2492
aI2918
aI2981
aI3088
aI3130
aI3195
aI3280
aI3374
aI3524
aI3595
aa(lp28
I45
aI193
aI313
aI399
aI450
aI529
aI802
aI831
aI835
aI871
aI1053
aI1341
aI1472
aI1498
aI2064
aI2313
aI2495
aI2549
aI2730
aI2918
aI2960
aI2993
aI3091
aI3137
aI3188
aI3296
aI3323
aI3448
aI3569
aa(lp29
I76
aI116
aI149
aI224
aI257
aI529
aI558
aI1053
aI1269
aI1629
aI1774
aI2064
aI2188
aI2310
aI2463
aI2584
aI2918
aI2960
aI2981
aI3121
aI3154
aI3188
aI3195
aI3296
aI3323
aI3519
aI3524
aI3595
aI3712
aa(lp30
I254
aI705
aI1053
aI1155
aI1267
aI1397
aI1413
aI1799
aI2025
aI2064
aI2458
aI2918
aI2960
aI3188
aI3296
aI3323
aa(lp31
I137
aI188
aI253
aI376
aI391
aI529
aI606
aI687
aI705
aI771
aI1000
aI1126
aI1312
aI1498
aI1676
aI1967
aI2026
aI2282
aI2313
aI2338
aI2909
aI2918
aI2936
aI3099
aI3185
aI3195
aI3522
aI3527
aI3595
aa(lp32
I253
aI376
aI701
aI705
aI1384
aI1397
aI1413
aI1551
aI1799
aI1967
aI1982
aI2909
aI2918
aI2936
aI3099
aI3185
aa(lp33
I320
aI454
aI529
aI584
aI896
aI1089
aI1133
aI1152
aI1154
aI1165
aI1226
aI1430
aI1470
aI1498
aI1520
aI2071
aI2234
aI2313
aI2564
aI2809
aI2852
aI2918
aI2971
aI2980
aI3021
aI3195
aI3328
aI3595
aI3691
aa(lp34
I45
aI429
aI529
aI625
aI674
aI862
aI863
aI867
aI1493
aI1498
aI2009
aI2308
aI2730
aI2755
aI3338
aI3611
aI3686
aa(lp35
I454
aI529
aI730
aI1133
aI1152
aI1154
aI1226
aI1470
aI2009
aI2037
aI2310
aI2971
aI2980
aI3195
aI3324
aI3595
aI3686
aa(lp36
I30
aI658
aI679
aI973
aI1641
aI2918
aI3142
aa(lp37
I44
aI564
aI824
aI844
aI1397
aI1413
aI1498
aI1799
aI1992
aI2147
aI2195
aI2313
aI2531
aI2665
aI2918
aI3374
aa(lp38
I45
aI121
aI210
aI248
aI529
aI533
aI814
aI906
aI980
aI1472
aI1498
aI1520
aI1702
aI1939
aI2313
aI2390
aI2481
aI2489
aI2495
aI2660
aI2730
aI2867
aI2910
aI2918
aI3195
aI3408
aI3431
aI3504
aI3540
aa(lp39
I45
aI149
aI277
aI307
aI461
aI529
aI563
aI674
aI910
aI1393
aI1457
aI1472
aI1498
aI1758
aI2001
aI2018
aI2313
aI2463
aI2492
aI2515
aI2730
aI2776
aI2918
aI2941
aI3061
aI3227
aI3418
aI3551
aI3727
aa(lp40
I45
aI277
aI529
aI910
aI980
aI1346
aI1774
aI1936
aI1939
aI2001
aI2126
aI2310
aI2390
aI2489
aI2492
aI2495
aI2730
aI2910
aI2918
aI3041
aI3061
aI3195
aI3257
aI3280
aI3418
aI3540
aI3575
aI3593
aI3732
aa(lp41
I174
aI381
aI402
aI425
aI470
aI529
aI781
aI1014
aI1217
aI1227
aI1398
aI1498
aI2088
aI2188
aI2313
aI2646
aI2887
aI2918
aI2981
aI2993
aI3091
aI3101
aI3187
aI3227
aI3280
aI3296
aI3297
aI3718
aI3727
aa(lp42
I45
aI76
aI371
aI381
aI425
aI529
aI781
aI853
aI980
aI1217
aI1225
aI1335
aI1858
aI1939
aI1954
aI2390
aI2433
aI2489
aI2495
aI2646
aI2730
aI2910
aI2918
aI3113
aI3195
aI3237
aI3296
aI3540
aI3743
aa(lp43
I76
aI176
aI376
aI397
aI529
aI720
aI1144
aI1498
aI1616
aI1643
aI1974
aI2146
aI2179
aI2282
aI2313
aI2596
aI2751
aI2918
aI3005
aI3028
aI3112
aI3227
aI3262
aI3520
aI3527
aI3632
aI3672
aI3694
aI3727
aa(lp44
I45
aI232
aI376
aI529
aI557
aI576
aI597
aI606
aI980
aI1144
aI1155
aI1267
aI1447
aI1939
aI1974
aI2332
aI2390
aI2489
aI2495
aI2596
aI2730
aI2910
aI2918
aI3028
aI3195
aI3302
aI3406
aI3540
aI3672
aa(lp45
I77
aI261
aI391
aI404
aI501
aI522
aI529
aI606
aI1154
aI1315
aI1410
aI1470
aI1498
aI1560
aI1676
aI1777
aI1916
aI2313
aI2423
aI2623
aI2692
aI2918
aI2992
aI3130
aI3227
aI3271
aI3328
aI3436
aI3727
aa(lp46
I38
aI45
aI388
aI403
aI478
aI529
aI625
aI867
aI1057
aI1180
aI1472
aI1498
aI2094
aI2313
aI2505
aI2613
aI2730
aI2755
aI2893
aI2902
aI2918
aI2962
aI3051
aI3064
aI3099
aI3165
aI3500
aI3569
aI3715
aa(lp47
I38
aI48
aI331
aI391
aI501
aI522
aI529
aI1057
aI1154
aI1165
aI1179
aI1180
aI1459
aI1470
aI1676
aI1774
aI2030
aI2222
aI2306
aI2310
aI2613
aI2692
aI2918
aI3099
aI3227
aI3374
aI3436
aI3715
aI3727
aa(lp48
I10
aI69
aI272
aI353
aI425
aI443
aI529
aI761
aI1004
aI1498
aI1858
aI1989
aI2188
aI2313
aI2495
aI2564
aI2716
aI2755
aI2852
aI2905
aI2918
aI2981
aI3071
aI3073
aI3083
aI3111
aI3280
aI3500
aI3562
aa(lp49
I45
aI176
aI245
aI429
aI468
aI473
aI529
aI790
aI813
aI863
aI1291
aI1472
aI1498
aI1690
aI1699
aI1756
aI1825
aI1927
aI2042
aI2064
aI2145
aI2233
aI2313
aI2441
aI2573
aI2730
aI2757
aI2918
aI3713
aa(lp50
I45
aI83
aI137
aI142
aI259
aI281
aI515
aI529
aI758
aI818
aI1358
aI1472
aI1498
aI1801
aI1962
aI1971
aI2267
aI2313
aI2641
aI2730
aI2744
aI2918
aI2931
aI2968
aI3130
aI3362
aI3605
aI3616
aI3740
aa(lp51
I45
aI200
aI439
aI514
aI529
aI871
aI1088
aI1122
aI1130
aI1244
aI1472
aI1498
aI1649
aI1887
aI1902
aI2064
aI2313
aI2408
aI2414
aI2428
aI2680
aI2683
aI2730
aI2828
aI2918
aI2920
aI3438
aI3569
aI3735
aa(lp52
I45
aI137
aI161
aI179
aI316
aI417
aI508
aI529
aI1043
aI1271
aI1314
aI1336
aI1472
aI1498
aI1667
aI2064
aI2125
aI2194
aI2313
aI2432
aI2730
aI2752
aI2918
aI3002
aI3050
aI3179
aI3197
aI3233
aI3489
aa(lp53
I16
aI45
aI439
aI508
aI529
aI1088
aI1122
aI1244
aI1336
aI1529
aI1649
aI1667
aI1774
aI1831
aI1902
aI2064
aI2194
aI2200
aI2223
aI2310
aI2349
aI2428
aI2434
aI2683
aI2730
aI2918
aI2920
aI3197
aI3280
aa(lp54
I45
aI76
aI142
aI508
aI529
aI818
aI1118
aI1121
aI1225
aI1336
aI1358
aI1517
aI1525
aI1667
aI1962
aI1971
aI2064
aI2194
aI2235
aI2267
aI2371
aI2730
aI2740
aI2887
aI2918
aI2931
aI3113
aI3197
aI3362
aa(lp55
I45
aI129
aI429
aI508
aI529
aI606
aI790
aI813
aI850
aI863
aI1155
aI1249
aI1267
aI1336
aI1667
aI1922
aI2042
aI2064
aI2194
aI2233
aI2441
aI2571
aI2573
aI2679
aI2730
aI2757
aI2918
aI3197
aI3446
aa(lp56
I69
aI90
aI272
aI353
aI386
aI443
aI508
aI529
aI701
aI1336
aI1667
aI1706
aI1982
aI1996
aI2064
aI2188
aI2191
aI2194
aI2495
aI2755
aI2775
aI2918
aI2981
aI3018
aI3137
aI3197
aI3500
aI3516
aI3562
aa(lp57
I137
aI529
aI586
aI973
aI1105
aI1133
aI1152
aI1165
aI1199
aI1348
aI1498
aI1562
aI1619
aI1987
aI2066
aI2209
aI2313
aI2441
aI2573
aI2592
aI2688
aI2908
aI2918
aI2964
aI3231
aI3329
aI3390
aI3410
aI3564
aa(lp58
I22
aI45
aI407
aI529
aI782
aI1203
aI1208
aI1472
aI1497
aI1498
aI1707
aI1783
aI1994
aI2162
aI2313
aI2412
aI2426
aI2428
aI2588
aI2730
aI2794
aI2898
aI2918
aI3374
aI3461
aI3494
aI3546
aI3655
aI3728
aa(lp59
I45
aI97
aI308
aI529
aI591
aI762
aI827
aI973
aI1035
aI1050
aI1250
aI1306
aI1420
aI1472
aI1498
aI1617
aI1778
aI2102
aI2285
aI2313
aI2364
aI2495
aI2638
aI2730
aI2918
aI2978
aI3579
aI3622
aI3701
aa(lp60
I1
aI22
aI45
aI529
aI591
aI823
aI973
aI1047
aI1050
aI1306
aI1774
aI1783
aI2310
aI2314
aI2364
aI2404
aI2426
aI2428
aI2550
aI2730
aI2794
aI2845
aI2898
aI2918
aI3280
aI3449
aI3461
aI3494
aI3579
aa(lp61
I529
aI591
aI764
aI973
aI1050
aI1105
aI1133
aI1152
aI1199
aI1225
aI1306
aI1802
aI2066
aI2105
aI2254
aI2364
aI2441
aI2539
aI2573
aI2688
aI2918
aI2964
aI3113
aI3231
aI3290
aI3329
aI3408
aI3579
aI3635
aa(lp62
I69
aI272
aI353
aI416
aI443
aI529
aI591
aI894
aI973
aI1035
aI1050
aI1306
aI1665
aI2188
aI2280
aI2364
aI2495
aI2755
aI2771
aI2918
aI2981
aI3316
aI3442
aI3500
aI3562
aI3579
aI3588
aI3606
aI3642
aa(lp63
I446
aI529
aI668
aI742
aI839
aI1073
aI1208
aI1498
aI1585
aI1823
aI1846
aI1869
aI1875
aI2127
aI2313
aI2325
aI2391
aI2412
aI2441
aI2573
aI2615
aI2696
aI2785
aI2786
aI2918
aI3374
aI3422
aI3555
aI3655
aa(lp64
I40
aI45
aI234
aI367
aI529
aI570
aI791
aI827
aI919
aI1357
aI1472
aI1484
aI1498
aI1778
aI2067
aI2132
aI2142
aI2263
aI2285
aI2313
aI2365
aI2478
aI2495
aI2513
aI2689
aI2730
aI2746
aI2904
aI2918
aa(lp65
I40
aI367
aI446
aI529
aI668
aI1448
aI1484
aI1492
aI1621
aI1774
aI1846
aI2127
aI2132
aI2310
aI2314
aI2325
aI2441
aI2446
aI2513
aI2573
aI2689
aI2696
aI2786
aI2918
aI2988
aI3056
aI3316
aI3422
aI3459
aa(lp66
I40
aI69
aI272
aI353
aI367
aI443
aI529
aI641
aI712
aI1191
aI1353
aI1437
aI1484
aI1612
aI2132
aI2142
aI2188
aI2382
aI2495
aI2513
aI2689
aI2755
aI2918
aI2923
aI2981
aI3325
aI3500
aI3562
aI3705
aa(lp67
I109
aI199
aI358
aI529
aI703
aI757
aI973
aI1148
aI1182
aI1440
aI1484
aI1498
aI1600
aI1671
aI1849
aI1856
aI2056
aI2080
aI2167
aI2313
aI2441
aI2446
aI2573
aI2803
aI2918
aI3435
aI3482
aI3598
aI3664
aa(lp68
I45
aI306
aI358
aI453
aI529
aI542
aI599
aI632
aI707
aI1068
aI1102
aI1323
aI1424
aI1472
aI1498
aI1552
aI1998
aI1999
aI2123
aI2247
aI2313
aI2730
aI2918
aI3024
aI3028
aI3216
aI3220
aI3315
aI3374
aa(lp69
I199
aI358
aI453
aI529
aI542
aI641
aI645
aI757
aI1072
aI1148
aI1440
aI1467
aI1552
aI1774
aI1888
aI2080
aI2123
aI2247
aI2258
aI2310
aI2344
aI2441
aI2573
aI2803
aI2918
aI3028
aI3315
aI3427
aI3435
aa(lp70
I77
aI398
aI529
aI655
aI709
aI1044
aI1068
aI1167
aI1175
aI1186
aI1208
aI1424
aI1451
aI1498
aI1642
aI1741
aI1861
aI1946
aI2022
aI2043
aI2188
aI2313
aI2527
aI2811
aI2918
aI2981
aI3280
aI3309
aI3629
aa(lp71
I45
aI359
aI383
aI403
aI529
aI611
aI651
aI825
aI827
aI856
aI1168
aI1281
aI1350
aI1472
aI1498
aI1659
aI2203
aI2313
aI2314
aI2351
aI2392
aI2628
aI2730
aI2863
aI2865
aI2918
aI2975
aI3038
aI3130
aa(lp72
I76
aI299
aI340
aI383
aI398
aI529
aI611
aI651
aI949
aI1068
aI1167
aI1168
aI1269
aI1326
aI1376
aI1424
aI1774
aI1861
aI1946
aI2188
aI2203
aI2310
aI2527
aI2579
aI2624
aI2918
aI2981
aI3130
aI3309
aa(lp73
I199
aI358
aI361
aI383
aI529
aI611
aI651
aI757
aI794
aI1065
aI1148
aI1155
aI1168
aI1267
aI1440
aI1743
aI1748
aI1915
aI2080
aI2203
aI2300
aI2441
aI2573
aI2803
aI2918
aI3130
aI3313
aI3435
aI3514
aa(lp74
I13
aI69
aI272
aI317
aI353
aI383
aI443
aI509
aI529
aI611
aI651
aI1168
aI1518
aI1830
aI2182
aI2188
aI2203
aI2260
aI2490
aI2495
aI2694
aI2755
aI2918
aI2981
aI3130
aI3343
aI3500
aI3562
aI3597
aa(lp75
I252
aI265
aI383
aI391
aI501
aI522
aI529
aI610
aI611
aI651
aI653
aI855
aI1154
aI1168
aI1410
aI1470
aI1676
aI2203
aI2272
aI2496
aI2692
aI2695
aI2780
aI2781
aI2918
aI3130
aI3227
aI3436
aI3727
aa(lp76
I45
aI383
aI412
aI490
aI529
aI611
aI651
aI980
aI1168
aI1371
aI1518
aI1672
aI1939
aI2203
aI2390
aI2413
aI2489
aI2495
aI2730
aI2910
aI2912
aI2918
aI2969
aI3115
aI3130
aI3195
aI3214
aI3540
aI3620
aa(lp77
I34
aI383
aI611
aI651
aI1082
aI1168
aI1397
aI1413
aI1799
aI1850
aI1884
aI2203
aI2665
aI2918
aI3130
aI3507
aa(lp78
I6
aI154
aI349
aI529
aI593
aI713
aI950
aI1285
aI1498
aI1506
aI1602
aI2291
aI2313
aI2323
aI2409
aI2555
aI2761
aI2918
aI2933
aI2989
aI3006
aI3180
aI3195
aI3269
aI3509
aI3540
aI3552
aI3569
aI3716
aa(lp79
I45
aI100
aI153
aI278
aI529
aI1103
aI1119
aI1228
aI1384
aI1472
aI1498
aI1567
aI1785
aI2017
aI2129
aI2239
aI2264
aI2313
aI2429
aI2468
aI2522
aI2730
aI2918
aI3008
aI3020
aI3118
aI3130
aI3456
aI3489
aa(lp80
I45
aI203
aI261
aI315
aI425
aI454
aI513
aI529
aI695
aI711
aI1070
aI1472
aI1498
aI1637
aI1753
aI1931
aI2139
aI2231
aI2313
aI2342
aI2452
aI2480
aI2730
aI2824
aI2918
aI3275
aI3475
aI3569
aI3626
aa(lp81
I45
aI100
aI103
aI261
aI315
aI425
aI529
aI1045
aI1070
aI1774
aI1785
aI2129
aI2231
aI2310
aI2429
aI2468
aI2730
aI2824
aI2856
aI2886
aI2918
aI3118
aI3190
aI3228
aI3280
aI3456
aI3489
aI3663
aI3695
aa(lp82
I52
aI176
aI184
aI426
aI474
aI529
aI833
aI973
aI985
aI1185
aI1498
aI1630
aI1753
aI1899
aI1931
aI2188
aI2199
aI2313
aI2505
aI2661
aI2744
aI2918
aI2981
aI3120
aI3280
aI3387
aI3474
aI3602
aI3630
aa(lp83
I5
aI45
aI138
aI190
aI385
aI529
aI649
aI690
aI797
aI884
aI1472
aI1498
aI1568
aI1644
aI1666
aI1754
aI1971
aI2084
aI2313
aI2415
aI2565
aI2730
aI2834
aI2918
aI2920
aI3035
aI3219
aI3276
aI3374
aa(lp84
I76
aI184
aI196
aI215
aI426
aI529
aI690
aI985
aI1160
aI1185
aI1414
aI1477
aI1644
aI1666
aI1753
aI1774
aI1872
aI1931
aI2084
aI2188
aI2219
aI2310
aI2505
aI2565
aI2918
aI2949
aI2981
aI3219
aI3387
aa(lp85
I45
aI100
aI115
aI529
aI606
aI690
aI1155
aI1202
aI1267
aI1402
aI1644
aI1666
aI1785
aI2084
aI2129
aI2156
aI2429
aI2468
aI2523
aI2565
aI2730
aI2918
aI3022
aI3118
aI3169
aI3219
aI3456
aI3489
aI3588
aa(lp86
I46
aI177
aI192
aI384
aI391
aI425
aI529
aI606
aI716
aI763
aI982
aI1498
aI1539
aI1676
aI1753
aI1810
aI1931
aI1956
aI2054
aI2127
aI2313
aI2823
aI2918
aI2947
aI2973
aI3326
aI3342
aI3356
aI3477
aa(lp87
I45
aI114
aI176
aI328
aI341
aI357
aI425
aI529
aI875
aI938
aI941
aI1019
aI1282
aI1472
aI1489
aI1498
aI1553
aI1678
aI1721
aI1816
aI1829
aI1837
aI2313
aI2347
aI2548
aI2730
aI2840
aI2918
aI2970
aa(lp88
I45
aI52
aI176
aI468
aI492
aI529
aI575
aI788
aI897
aI973
aI1056
aI1196
aI1325
aI1472
aI1498
aI1507
aI1824
aI1891
aI1971
aI2313
aI2399
aI2533
aI2730
aI2918
aI3150
aI3221
aI3451
aI3480
aI3512
aa(lp89
I28
aI45
aI230
aI481
aI529
aI583
aI612
aI797
aI973
aI1077
aI1472
aI1498
aI1614
aI1705
aI1803
aI1971
aI2304
aI2313
aI2506
aI2730
aI2847
aI2854
aI2906
aI2918
aI2931
aI3074
aI3167
aI3374
aI3512
aa(lp90
I45
aI53
aI215
aI230
aI500
aI529
aI575
aI973
aI1325
aI1507
aI1614
aI1705
aI1774
aI1824
aI1965
aI1971
aI2128
aI2174
aI2310
aI2399
aI2533
aI2730
aI2769
aI2854
aI2906
aI2918
aI3221
aI3280
aI3512
aa(lp91
I45
aI76
aI135
aI230
aI328
aI341
aI357
aI529
aI704
aI778
aI914
aI973
aI1019
aI1225
aI1278
aI1282
aI1489
aI1614
aI1705
aI1816
aI2134
aI2554
aI2730
aI2854
aI2906
aI2918
aI2970
aI3113
aI3653
aa(lp92
I192
aI230
aI384
aI391
aI529
aI716
aI973
aI1155
aI1257
aI1267
aI1614
aI1676
aI1705
aI1753
aI1781
aI1931
aI1956
aI2095
aI2127
aI2158
aI2254
aI2386
aI2542
aI2854
aI2886
aI2906
aI2918
aI2947
aI3452
aa(lp93
I45
aI100
aI230
aI483
aI529
aI962
aI973
aI1016
aI1614
aI1705
aI1747
aI1785
aI2048
aI2112
aI2113
aI2129
aI2280
aI2429
aI2468
aI2730
aI2785
aI2854
aI2906
aI2918
aI3108
aI3118
aI3442
aI3456
aI3489
aa(lp94
I529
aI580
aI741
aI948
aI1075
aI1231
aI1305
aI1498
aI1520
aI1753
aI1846
aI1931
aI1948
aI2313
aI2324
aI2334
aI2352
aI2366
aI2577
aI2696
aI2785
aI2866
aI2869
aI2896
aI2918
aI3374
aI3411
aI3492
aI3596
aa(lp95
I45
aI263
aI529
aI674
aI865
aI1031
aI1379
aI1431
aI1472
aI1498
aI1700
aI2090
aI2297
aI2313
aI2495
aI2499
aI2722
aI2725
aI2730
aI2918
aI2977
aI3152
aI3418
aI3429
aI3537
aI3627
aI3668
aI3678
aI3722
aa(lp96
I528
aI529
aI1031
aI1305
aI1598
aI1753
aI1774
aI1817
aI1846
aI1931
aI2110
aI2186
aI2310
aI2324
aI2334
aI2366
aI2499
aI2668
aI2696
aI2896
aI2918
aI3152
aI3316
aI3411
aI3418
aI3582
aI3667
aI3668
aI3678
aa(lp97
I263
aI419
aI529
aI735
aI1008
aI1014
aI1055
aI1366
aI1498
aI1572
aI1636
aI1800
aI1914
aI2057
aI2188
aI2313
aI2349
aI2722
aI2831
aI2864
aI2918
aI2981
aI2990
aI2991
aI3099
aI3280
aI3377
aI3391
aI3398
aa(lp98
I45
aI221
aI451
aI529
aI874
aI1054
aI1081
aI1472
aI1498
aI1501
aI1537
aI1580
aI1614
aI1895
aI2313
aI2319
aI2411
aI2730
aI2852
aI2884
aI2918
aI3152
aI3289
aI3355
aI3370
aI3490
aI3524
aI3666
aI3742
aa(lp99
I76
aI187
aI221
aI263
aI419
aI476
aI529
aI887
aI1014
aI1054
aI1580
aI1614
aI1774
aI1794
aI1849
aI1914
aI2015
aI2188
aI2310
aI2722
aI2831
aI2918
aI2981
aI2991
aI3152
aI3377
aI3379
aI3666
aI3729
aa(lp100
I150
aI268
aI396
aI484
aI529
aI643
aI733
aI921
aI1498
aI1635
aI1895
aI2188
aI2205
aI2313
aI2319
aI2324
aI2341
aI2349
aI2388
aI2507
aI2748
aI2918
aI2981
aI3024
aI3080
aI3280
aI3571
aI3641
aI3655
aa(lp101
I45
aI88
aI195
aI229
aI263
aI309
aI319
aI477
aI529
aI681
aI979
aI1415
aI1472
aI1498
aI1730
aI2285
aI2313
aI2358
aI2596
aI2677
aI2730
aI2846
aI2918
aI3029
aI3065
aI3182
aI3192
aI3524
aI3610
aa(lp102
I76
aI150
aI268
aI318
aI396
aI477
aI529
aI733
aI999
aI1269
aI1390
aI1415
aI1481
aI1730
aI1774
aI1895
aI2188
aI2310
aI2319
aI2324
aI2475
aI2561
aI2596
aI2677
aI2918
aI2981
aI3024
aI3049
aI3192
aa(lp103
I195
aI263
aI276
aI529
aI912
aI1005
aI1169
aI1209
aI1245
aI1359
aI1498
aI1542
aI1614
aI1777
aI1794
aI2140
aI2188
aI2313
aI2377
aI2459
aI2503
aI2807
aI2918
aI2981
aI3133
aI3146
aI3280
aI3330
aI3629
aa(lp104
I25
aI45
aI520
aI529
aI752
aI977
aI1087
aI1472
aI1498
aI1571
aI1651
aI1790
aI1829
aI1843
aI2064
aI2313
aI2314
aI2324
aI2383
aI2421
aI2472
aI2663
aI2730
aI2762
aI2788
aI2918
aI2962
aI3069
aI3660
aa(lp105
I76
aI195
aI263
aI528
aI529
aI820
aI977
aI1087
aI1245
aI1774
aI1818
aI1829
aI2064
aI2188
aI2310
aI2377
aI2459
aI2536
aI2605
aI2663
aI2765
aI2807
aI2918
aI2953
aI2981
aI3133
aI3146
aI3298
aI3660
aa(lp106
I73
aI137
aI168
aI242
aI529
aI723
aI922
aI1039
aI1190
aI1498
aI1595
aI1597
aI1804
aI1843
aI1929
aI2188
aI2313
aI2327
aI2346
aI2431
aI2456
aI2533
aI2618
aI2918
aI2929
aI2981
aI2991
aI3069
aI3280
aa(lp107
I45
aI215
aI452
aI529
aI889
aI1078
aI1332
aI1472
aI1498
aI1520
aI1552
aI1716
aI1814
aI1842
aI2313
aI2321
aI2428
aI2465
aI2687
aI2730
aI2918
aI3074
aI3127
aI3264
aI3308
aI3357
aI3440
aI3453
aI3658
aa(lp108
I76
aI529
aI723
aI889
aI1128
aI1294
aI1346
aI1520
aI1552
aI1554
aI1566
aI1774
aI1842
aI1843
aI2188
aI2310
aI2327
aI2331
aI2431
aI2438
aI2533
aI2918
aI2929
aI2981
aI2991
aI3069
aI3070
aI3264
aI3357
aa(lp109
I195
aI263
aI529
aI889
aI891
aI1155
aI1165
aI1245
aI1267
aI1520
aI1552
aI1842
aI2188
aI2377
aI2450
aI2459
aI2461
aI2493
aI2528
aI2807
aI2918
aI2944
aI2981
aI3133
aI3146
aI3264
aI3357
aI3412
aI3711
aa(lp110
I132
aI150
aI173
aI268
aI396
aI529
aI733
aI743
aI889
aI927
aI1520
aI1552
aI1842
aI1885
aI1895
aI2188
aI2254
aI2319
aI2324
aI2783
aI2918
aI2981
aI3000
aI3024
aI3057
aI3264
aI3357
aI3542
aI3623
aa(lp111
I263
aI419
aI494
aI529
aI748
aI889
aI1014
aI1474
aI1520
aI1552
aI1842
aI1914
aI2188
aI2280
aI2461
aI2722
aI2831
aI2918
aI2981
aI2991
aI3070
aI3263
aI3264
aI3273
aI3316
aI3357
aI3377
aI3442
aI3567
aa(lp112
I337
aI529
aI889
aI948
aI1191
aI1305
aI1353
aI1520
aI1552
aI1611
aI1697
aI1753
aI1842
aI1846
aI1931
aI2324
aI2334
aI2366
aI2696
aI2896
aI2918
aI2922
aI3000
aI3009
aI3144
aI3264
aI3317
aI3357
aI3411
aa(lp113
I45
aI87
aI100
aI378
aI529
aI889
aI1265
aI1505
aI1520
aI1552
aI1564
aI1785
aI1842
aI2038
aI2129
aI2369
aI2429
aI2468
aI2730
aI2916
aI2918
aI3118
aI3143
aI3264
aI3357
aI3416
aI3456
aI3489
aI3650
aa(lp114
I354
aI437
aI529
aI593
aI753
aI889
aI1193
aI1506
aI1520
aI1552
aI1602
aI1842
aI1851
aI2291
aI2316
aI2375
aI2555
aI2918
aI2933
aI2961
aI3195
aI3264
aI3269
aI3357
aI3384
aI3407
aI3540
aI3676
aI3716
aa(lp115
I810
aI889
aI1397
aI1413
aI1520
aI1552
aI1799
aI1842
aI1871
aI2665
aI2918
aI3264
aI3341
aI3357
aI3478
aI3640
aa(lp116
I247
aI283
aI468
aI472
aI529
aI567
aI674
aI899
aI993
aI1096
aI1173
aI1233
aI1494
aI1498
aI1717
aI1852
aI1960
aI2064
aI2261
aI2286
aI2313
aI2328
aI2860
aI2918
aI3052
aI3184
aI3195
aI3309
aI3540
aa(lp117
I45
aI74
aI137
aI345
aI529
aI776
aI1472
aI1498
aI1558
aI1659
aI1709
aI1724
aI1876
aI1898
aI1908
aI2051
aI2313
aI2535
aI2608
aI2730
aI2796
aI2829
aI2918
aI2931
aI2967
aI3028
aI3251
aI3266
aI3394
aa(lp118
I60
aI345
aI529
aI650
aI676
aI1030
aI1058
aI1173
aI1233
aI1558
aI1774
aI1810
aI1852
aI1917
aI1960
aI2261
aI2286
aI2310
aI2535
aI2860
aI2918
aI3028
aI3030
aI3195
aI3251
aI3309
aI3394
aI3403
aI3540
aa(lp119
I77
aI220
aI341
aI529
aI592
aI1059
aI1208
aI1216
aI1224
aI1471
aI1498
aI1659
aI1759
aI1808
aI2077
aI2188
aI2313
aI2362
aI2591
aI2724
aI2817
aI2918
aI2981
aI3266
aI3280
aI3337
aI3629
aI3665
aI3699
aa(lp120
I11
aI77
aI284
aI415
aI529
aI616
aI793
aI1173
aI1208
aI1225
aI1233
aI1269
aI1577
aI1852
aI1960
aI2022
aI2261
aI2286
aI2591
aI2724
aI2860
aI2918
aI2982
aI3113
aI3195
aI3309
aI3337
aI3540
aI3629
aa(lp121
I76
aI120
aI356
aI403
aI406
aI413
aI486
aI529
aI827
aI834
aI848
aI1311
aI1498
aI1643
aI1659
aI1827
aI2179
aI2313
aI2314
aI2459
aI2675
aI2863
aI2918
aI3152
aI3266
aI3368
aI3583
aI3601
aI3604
aa(lp122
I288
aI356
aI408
aI413
aI529
aI778
aI834
aI1155
aI1173
aI1233
aI1267
aI1462
aI1495
aI1852
aI1874
aI1960
aI2092
aI2117
aI2261
aI2286
aI2675
aI2860
aI2918
aI3152
aI3195
aI3210
aI3309
aI3368
aI3540
aa(lp123
I32
aI391
aI529
aI606
aI652
aI714
aI1108
aI1232
aI1251
aI1386
aI1458
aI1491
aI1498
aI1543
aI1659
aI1676
aI1976
aI2010
aI2177
aI2313
aI2349
aI2473
aI2658
aI2918
aI3177
aI3266
aI3354
aI3388
aI3631
aa(lp124
I45
aI343
aI528
aI529
aI618
aI739
aI811
aI829
aI936
aI1032
aI1037
aI1205
aI1472
aI1498
aI1818
aI2061
aI2064
aI2313
aI2530
aI2616
aI2730
aI2798
aI2918
aI3001
aI3089
aI3121
aI3188
aI3524
aI3710
aa(lp125
I130
aI391
aI529
aI600
aI618
aI652
aI1037
aI1108
aI1165
aI1249
aI1251
aI1458
aI1659
aI1676
aI1774
aI2061
aI2064
aI2103
aI2177
aI2310
aI2538
aI2616
aI2770
aI2918
aI3188
aI3266
aI3268
aI3446
aI3631
aa(lp126
I137
aI529
aI705
aI739
aI755
aI784
aI872
aI937
aI1126
aI1484
aI1498
aI1710
aI1755
aI1983
aI2188
aI2275
aI2292
aI2313
aI2567
aI2798
aI2822
aI2918
aI2981
aI3099
aI3148
aI3162
aI3164
aI3280
aI3586
aa(lp127
I45
aI66
aI358
aI453
aI475
aI529
aI556
aI664
aI773
aI1145
aI1164
aI1449
aI1472
aI1498
aI1552
aI1765
aI2247
aI2313
aI2428
aI2462
aI2730
aI2759
aI2852
aI2918
aI2930
aI3028
aI3141
aI3535
aI3595
aa(lp128
I76
aI215
aI453
aI529
aI555
aI705
aI739
aI1449
aI1475
aI1552
aI1710
aI1755
aI1765
aI1774
aI1983
aI2188
aI2292
aI2310
aI2567
aI2622
aI2792
aI2798
aI2918
aI2974
aI2981
aI3004
aI3028
aI3293
aI3535
aa(lp129
I391
aI453
aI529
aI652
aI721
aI1099
aI1108
aI1155
aI1181
aI1251
aI1267
aI1449
aI1458
aI1552
aI1582
aI1659
aI1676
aI1765
aI1909
aI2121
aI2154
aI2177
aI2254
aI2918
aI3028
aI3082
aI3266
aI3535
aI3631
aa(lp130
I295
aI382
aI453
aI529
aI866
aI1159
aI1173
aI1233
aI1449
aI1552
aI1765
aI1852
aI1960
aI1985
aI2261
aI2280
aI2286
aI2808
aI2860
aI2918
aI2996
aI3028
aI3030
aI3195
aI3309
aI3407
aI3442
aI3535
aI3540
aa(lp131
I77
aI457
aI529
aI582
aI1266
aI1331
aI1460
aI1498
aI1558
aI1659
aI1684
aI1741
aI1846
aI1900
aI2172
aI2240
aI2313
aI2348
aI2581
aI2696
aI2756
aI2785
aI2851
aI2918
aI3025
aI3266
aI3284
aI3309
aI3704
aa(lp132
I45
aI403
aI480
aI529
aI825
aI971
aI995
aI1086
aI1264
aI1272
aI1472
aI1498
aI1659
aI1725
aI1736
aI2157
aI2229
aI2313
aI2628
aI2723
aI2730
aI2744
aI2817
aI2901
aI2918
aI3130
aI3375
aI3472
aI3505
aa(lp133
I45
aI164
aI310
aI425
aI447
aI529
aI711
aI805
aI901
aI1321
aI1472
aI1498
aI1530
aI1541
aI1570
aI1638
aI1862
aI1935
aI2097
aI2164
aI2313
aI2730
aI2760
aI2876
aI2918
aI2920
aI3151
aI3493
aI3569
aa(lp134
I45
aI176
aI198
aI279
aI397
aI529
aI552
aI697
aI750
aI1015
aI1276
aI1283
aI1433
aI1468
aI1472
aI1498
aI1819
aI2125
aI2252
aI2313
aI2374
aI2457
aI2595
aI2596
aI2730
aI2918
aI2954
aI3489
aI3618
aa(lp135
I45
aI279
aI529
aI750
aI901
aI970
aI1283
aI1321
aI1574
aI1718
aI1774
aI1810
aI1862
aI1935
aI2097
aI2252
aI2310
aI2457
aI2514
aI2596
aI2730
aI2760
aI2876
aI2881
aI2894
aI2918
aI2920
aI3280
aI3321
aa(lp136
I45
aI76
aI279
aI323
aI403
aI480
aI529
aI750
aI825
aI864
aI1225
aI1264
aI1269
aI1283
aI1399
aI1659
aI1736
aI2229
aI2252
aI2290
aI2457
aI2596
aI2614
aI2730
aI2901
aI2918
aI3049
aI3113
aI3421
aa(lp137
I215
aI279
aI529
aI582
aI641
aI750
aI864
aI1155
aI1230
aI1267
aI1283
aI1298
aI1659
aI1684
aI1846
aI2230
aI2240
aI2252
aI2336
aI2457
aI2596
aI2696
aI2918
aI2997
aI3025
aI3266
aI3309
aI3417
aI3704
aa(lp138
I84
aI391
aI425
aI441
aI480
aI529
aI606
aI961
aI1011
aI1309
aI1498
aI1659
aI1676
aI1764
aI1777
aI2104
aI2157
aI2313
aI2367
aI2582
aI2601
aI2744
aI2836
aI2918
aI2984
aI3062
aI3283
aI3303
aI3613
aa(lp139
I0
aI45
aI118
aI176
aI336
aI529
aI614
aI1110
aI1360
aI1407
aI1423
aI1472
aI1498
aI1744
aI2269
aI2313
aI2389
aI2730
aI2839
aI2911
aI2918
aI2920
aI2962
aI3139
aI3229
aI3242
aI3366
aI3395
aI3693
aa(lp140
I84
aI391
aI441
aI480
aI519
aI529
aI615
aI626
aI1165
aI1309
aI1360
aI1423
aI1504
aI1659
aI1676
aI1774
aI2053
aI2269
aI2310
aI2349
aI2367
aI2389
aI2839
aI2911
aI2918
aI2942
aI3062
aI3176
aI3303
aa(lp141
I0
aI61
aI529
aI730
aI923
aI945
aI1101
aI1174
aI1254
aI1361
aI1498
aI1520
aI1918
aI1920
aI1938
aI2188
aI2212
aI2221
aI2313
aI2440
aI2575
aI2918
aI2959
aI2981
aI3031
aI3229
aI3280
aI3524
aI3556
aa(lp142
I45
aI291
aI346
aI529
aI544
aI674
aI1297
aI1431
aI1472
aI1498
aI1648
aI1681
aI1757
aI2293
aI2313
aI2532
aI2652
aI2730
aI2732
aI2818
aI2918
aI2921
aI2935
aI3152
aI3163
aI3188
aI3430
aI3553
aI3599
aa(lp143
I0
aI61
aI76
aI187
aI346
aI529
aI832
aI1009
aI1174
aI1188
aI1751
aI1774
aI1849
aI1938
aI2188
aI2310
aI2440
aI2575
aI2652
aI2732
aI2884
aI2918
aI2981
aI3152
aI3163
aI3188
aI3229
aI3230
aI3524
aa(lp144
I84
aI141
aI346
aI369
aI391
aI441
aI480
aI529
aI815
aI1002
aI1155
aI1267
aI1309
aI1659
aI1676
aI1933
aI2119
aI2254
aI2367
aI2652
aI2732
aI2918
aI3062
aI3152
aI3163
aI3188
aI3268
aI3303
aI3359
aa(lp145
I0
aI3
aI217
aI391
aI517
aI529
aI606
aI640
aI705
aI854
aI932
aI1106
aI1498
aI1661
aI1676
aI2020
aI2052
aI2313
aI2341
aI2349
aI2598
aI2918
aI2938
aI3229
aI3254
aI3287
aI3383
aI3419
aI3655
aa(lp146
I3
aI84
aI391
aI441
aI480
aI529
aI701
aI732
aI1309
aI1318
aI1450
aI1659
aI1676
aI1812
aI1855
aI1982
aI2020
aI2052
aI2367
aI2447
aI2629
aI2785
aI2918
aI2938
aI3062
aI3287
aI3303
aI3549
aI3655
aa(lp147
I3
aI420
aI510
aI529
aI582
aI747
aI981
aI986
aI1064
aI1659
aI1684
aI1738
aI1797
aI1846
aI1901
aI2020
aI2052
aI2240
aI2385
aI2629
aI2696
aI2918
aI2938
aI3025
aI3266
aI3287
aI3309
aI3655
aI3704
aa(lp148
I3
aI35
aI146
aI380
aI529
aI648
aI986
aI1173
aI1233
aI1646
aI1852
aI1960
aI2003
aI2020
aI2052
aI2261
aI2286
aI2860
aI2918
aI2938
aI3084
aI3195
aI3287
aI3301
aI3309
aI3444
aI3540
aI3655
aI3677
aa(lp149
I12
aI107
aI111
aI334
aI529
aI538
aI585
aI904
aI940
aI947
aI1020
aI1355
aI1498
aI1609
aI1611
aI1650
aI1659
aI1997
aI2285
aI2313
aI2574
aI2596
aI2621
aI2630
aI2805
aI2918
aI3029
aI3266
aI3614
aa(lp150
I45
aI189
aI304
aI529
aI689
aI740
aI828
aI973
aI1435
aI1472
aI1498
aI1777
aI1934
aI1991
aI2144
aI2165
aI2197
aI2278
aI2313
aI2552
aI2730
aI2806
aI2813
aI2917
aI2918
aI3042
aI3158
aI3423
aI3506
aa(lp151
I45
aI148
aI194
aI529
aI562
aI731
aI994
aI1125
aI1472
aI1498
aI1558
aI1604
aI1788
aI1889
aI1941
aI2242
aI2249
aI2313
aI2639
aI2730
aI2736
aI2774
aI2826
aI2918
aI2962
aI3374
aI3389
aI3468
aI3558
aa(lp152
I45
aI304
aI529
aI689
aI731
aI740
aI1427
aI1558
aI1628
aI1774
aI1810
aI1859
aI1917
aI1941
aI2165
aI2197
aI2249
aI2278
aI2310
aI2552
aI2730
aI2733
aI2774
aI2826
aI2918
aI3042
aI3280
aI3413
aI3696
aa(lp153
I12
aI107
aI111
aI169
aI528
aI529
aI538
aI549
aI731
aI904
aI1225
aI1289
aI1558
aI1650
aI1659
aI1941
aI1997
aI2249
aI2368
aI2695
aI2774
aI2805
aI2826
aI2918
aI3113
aI3140
aI3202
aI3266
aI3335
aa(lp154
I76
aI82
aI102
aI225
aI453
aI529
aI646
aI740
aI1428
aI1498
aI1643
aI1780
aI1866
aI1912
aI2179
aI2213
aI2278
aI2313
aI2559
aI2817
aI2918
aI2952
aI2991
aI2998
aI3059
aI3097
aI3255
aI3282
aI3394
aa(lp155
I45
aI49
aI117
aI218
aI471
aI529
aI578
aI975
aI1339
aI1471
aI1472
aI1498
aI1535
aI1640
aI1741
aI1935
aI2046
aI2311
aI2313
aI2482
aI2565
aI2627
aI2730
aI2749
aI2918
aI3085
aI3340
aI3617
aI3736
aa(lp156
I102
aI117
aI225
aI471
aI529
aI606
aI740
aI1428
aI1436
aI1643
aI1688
aI1774
aI1777
aI2155
aI2179
aI2278
aI2310
aI2565
aI2627
aI2636
aI2918
aI2927
aI2952
aI2991
aI3085
aI3183
aI3255
aI3340
aI3348
aa(lp157
I529
aI535
aI579
aI727
aI882
aI975
aI1172
aI1498
aI1810
aI2014
aI2188
aI2255
aI2311
aI2313
aI2350
aI2499
aI2566
aI2634
aI2763
aI2918
aI2962
aI2981
aI3116
aI3188
aI3243
aI3280
aI3517
aI3612
aI3629
aa(lp158
I102
aI215
aI225
aI352
aI529
aI571
aI647
aI740
aI798
aI882
aI1165
aI1172
aI1225
aI1428
aI1643
aI1944
aI2179
aI2278
aI2499
aI2763
aI2918
aI2952
aI2991
aI3113
aI3188
aI3255
aI3523
aI3568
aI3629
aa(lp159
I12
aI107
aI111
aI173
aI529
aI536
aI538
aI594
aI607
aI882
aI904
aI951
aI1172
aI1650
aI1659
aI1691
aI1924
aI1997
aI2173
aI2499
aI2763
aI2783
aI2805
aI2918
aI3188
aI3266
aI3268
aI3393
aI3629
aa(lp160
I39
aI377
aI460
aI529
aI569
aI621
aI705
aI740
aI760
aI1029
aI1170
aI1208
aI1366
aI1498
aI1706
aI1728
aI2278
aI2299
aI2313
aI2314
aI2406
aI2509
aI2738
aI2918
aI3570
aI3655
aI3657
aI3681
aI3724
aa(lp161
I45
aI71
aI360
aI425
aI451
aI529
aI532
aI537
aI631
aI827
aI907
aI1100
aI1438
aI1472
aI1498
aI1599
aI1601
aI1926
aI2073
aI2285
aI2313
aI2320
aI2345
aI2617
aI2730
aI2918
aI3126
aI3272
aI3595
aa(lp162
I39
aI71
aI360
aI425
aI529
aI532
aI537
aI569
aI631
aI705
aI740
aI1317
aI1587
aI1774
aI1810
aI1980
aI1990
aI2054
aI2254
aI2278
aI2299
aI2310
aI2406
aI2509
aI2801
aI2918
aI3107
aI3657
aI3724
aa(lp163
I43
aI144
aI176
aI341
aI529
aI759
aI938
aI983
aI1201
aI1258
aI1354
aI1480
aI1498
aI1699
aI1793
aI2064
aI2149
aI2188
aI2313
aI2632
aI2647
aI2848
aI2918
aI2981
aI3085
aI3272
aI3280
aI3392
aI3595
aa(lp164
I39
aI529
aI569
aI705
aI740
aI1201
aI1225
aI1378
aI1436
aI1480
aI1528
aI2016
aI2064
aI2149
aI2278
aI2299
aI2380
aI2384
aI2406
aI2509
aI2647
aI2785
aI2918
aI3058
aI3085
aI3113
aI3386
aI3657
aI3724
aa(lp165
I12
aI107
aI111
aI126
aI300
aI510
aI529
aI538
aI904
aI927
aI955
aI1201
aI1480
aI1633
aI1650
aI1659
aI1738
aI1997
aI2064
aI2149
aI2185
aI2647
aI2805
aI2841
aI2918
aI3048
aI3085
aI3095
aI3266
aa(lp166
I137
aI529
aI684
aI740
aI1023
aI1254
aI1485
aI1498
aI1549
aI1623
aI1801
aI1853
aI1972
aI2148
aI2278
aI2313
aI2403
aI2410
aI2498
aI2727
aI2918
aI3017
aI3066
aI3130
aI3193
aI3307
aI3316
aI3612
aI3689
aa(lp167
I45
aI493
aI529
aI573
aI617
aI628
aI657
aI663
aI691
aI1356
aI1472
aI1498
aI1887
aI2031
aI2160
aI2184
aI2313
aI2428
aI2596
aI2609
aI2730
aI2756
aI2888
aI2918
aI3100
aI3265
aI3305
aI3569
aI3599
aa(lp168
I45
aI158
aI271
aI518
aI529
aI1003
aI1337
aI1344
aI1352
aI1472
aI1498
aI1505
aI1520
aI1683
aI1777
aI2023
aI2082
aI2313
aI2470
aI2564
aI2706
aI2730
aI2918
aI2955
aI3135
aI3489
aI3505
aI3541
aI3731
aa(lp169
I45
aI158
aI493
aI529
aI628
aI663
aI1301
aI1344
aI1520
aI1683
aI1774
aI1877
aI1948
aI2160
aI2310
aI2428
aI2465
aI2564
aI2609
aI2730
aI2800
aI2888
aI2918
aI3280
aI3374
aI3505
aI3599
aI3651
aI3728
aa(lp170
I158
aI529
aI641
aI684
aI730
aI740
aI1023
aI1225
aI1344
aI1520
aI1623
aI1664
aI1683
aI1918
aI2006
aI2089
aI2148
aI2278
aI2340
aI2564
aI2727
aI2784
aI2918
aI3113
aI3193
aI3505
aI3612
aI3648
aI3689
aa(lp171
I76
aI261
aI291
aI429
aI493
aI529
aI540
aI663
aI674
aI987
aI1255
aI1466
aI1498
aI1520
aI1545
aI1632
aI1643
aI1703
aI1822
aI2060
aI2179
aI2313
aI2532
aI2835
aI2876
aI2900
aI2918
aI3224
aI3487
aa(lp172
I261
aI529
aI684
aI740
aI903
aI987
aI1023
aI1155
aI1198
aI1267
aI1520
aI1594
aI1623
aI1645
aI1822
aI1849
aI2148
aI2278
aI2569
aI2727
aI2784
aI2791
aI2900
aI2918
aI3193
aI3350
aI3487
aI3612
aI3689
aa(lp173
I17
aI391
aI427
aI430
aI453
aI493
aI529
aI606
aI632
aI663
aI674
aI974
aI1163
aI1498
aI1676
aI2086
aI2313
aI2505
aI2652
aI2676
aI2918
aI3024
aI3081
aI3211
aI3247
aI3334
aI3394
aI3659
aI3714
aa(lp174
I19
aI45
aI529
aI589
aI649
aI976
aI1322
aI1375
aI1439
aI1471
aI1472
aI1498
aI1558
aI1559
aI1709
aI1741
aI1898
aI2012
aI2274
aI2313
aI2488
aI2730
aI2851
aI2918
aI3156
aI3250
aI3287
aI3353
aI3428
aa(lp175
I17
aI391
aI430
aI493
aI529
aI663
aI976
aI1102
aI1165
aI1322
aI1327
aI1375
aI1558
aI1559
aI1604
aI1676
aI1774
aI2241
aI2310
aI2505
aI2764
aI2795
aI2918
aI3024
aI3211
aI3287
aI3334
aI3374
aI3563
aa(lp176
I173
aI529
aI684
aI740
aI976
aI1023
aI1038
aI1299
aI1322
aI1328
aI1375
aI1558
aI1559
aI1623
aI1888
aI2148
aI2278
aI2289
aI2717
aI2727
aI2783
aI2918
aI3193
aI3287
aI3591
aI3612
aI3644
aI3689
aI3697
aa(lp177
I12
aI107
aI111
aI529
aI538
aI768
aI904
aI976
aI1289
aI1322
aI1375
aI1412
aI1558
aI1559
aI1650
aI1659
aI1997
aI2083
aI2644
aI2805
aI2816
aI2878
aI2918
aI3078
aI3114
aI3134
aI3266
aI3287
aI3363
aa(lp178
I223
aI509
aI529
aI639
aI740
aI898
aI1063
aI1210
aI1296
aI1444
aI1498
aI1624
aI2045
aI2237
aI2278
aI2303
aI2313
aI2557
aI2596
aI2772
aI2805
aI2817
aI2918
aI3217
aI3304
aI3491
aI3508
aI3607
aI3690
aa(lp179
I45
aI98
aI453
aI482
aI514
aI529
aI1017
aI1472
aI1498
aI1531
aI1711
aI1740
aI1777
aI1868
aI1935
aI2062
aI2124
aI2133
aI2279
aI2312
aI2313
aI2318
aI2435
aI2730
aI2918
aI3007
aI3447
aI3559
aI3576
aa(lp180
I26
aI45
aI161
aI243
aI529
aI547
aI636
aI722
aI805
aI909
aI930
aI963
aI1041
aI1147
aI1472
aI1498
aI1732
aI1741
aI1769
aI2107
aI2313
aI2730
aI2918
aI2962
aI3130
aI3238
aI3306
aI3501
aI3647
aa(lp181
I45
aI93
aI98
aI137
aI287
aI482
aI529
aI547
aI805
aI1007
aI1608
aI1732
aI1740
aI1774
aI1792
aI1801
aI1868
aI1935
aI2152
aI2310
aI2312
aI2730
aI2918
aI3130
aI3238
aI3280
aI3306
aI3559
aI3576
aa(lp182
I2
aI26
aI92
aI324
aI425
aI529
aI636
aI697
aI711
aI817
aI1080
aI1331
aI1343
aI1422
aI1498
aI1538
aI1589
aI1887
aI2188
aI2251
aI2313
aI2428
aI2483
aI2918
aI2981
aI3068
aI3280
aI3471
aI3569
aa(lp183
I45
aI76
aI98
aI266
aI324
aI400
aI425
aI482
aI529
aI1184
aI1225
aI1331
aI1343
aI1538
aI1740
aI1868
aI1935
aI2251
aI2312
aI2349
aI2730
aI2918
aI3113
aI3151
aI3222
aI3248
aI3559
aI3565
aI3576
aa(lp184
I26
aI76
aI176
aI298
aI529
aI629
aI636
aI838
aI905
aI1120
aI1264
aI1329
aI1484
aI1498
aI1603
aI1643
aI1820
aI1879
aI2122
aI2135
aI2179
aI2313
aI2361
aI2918
aI2979
aI3130
aI3319
aI3420
aI3524
aa(lp185
I45
aI358
aI529
aI619
aI675
aI901
aI925
aI946
aI1135
aI1206
aI1472
aI1498
aI1729
aI1969
aI1971
aI2036
aI2078
aI2202
aI2226
aI2313
aI2565
aI2705
aI2730
aI2918
aI2932
aI3035
aI3103
aI3434
aI3569
aa(lp186
I26
aI442
aI526
aI529
aI606
aI619
aI629
aI636
aI675
aI838
aI925
aI1264
aI1643
aI1774
aI1810
aI1879
aI1969
aI2122
aI2179
aI2310
aI2565
aI2741
aI2918
aI2932
aI3331
aI3426
aI3510
aI3524
aI3684
aa(lp187
I45
aI98
aI227
aI482
aI529
aI619
aI675
aI701
aI778
aI830
aI925
aI1091
aI1165
aI1383
aI1740
aI1868
aI1935
aI1969
aI1982
aI2028
aI2312
aI2565
aI2686
aI2730
aI2918
aI2932
aI3559
aI3576
aI3617
aa(lp188
I26
aI143
aI393
aI487
aI529
aI622
aI627
aI636
aI913
aI1071
aI1133
aI1152
aI1161
aI1165
aI1234
aI1411
aI1498
aI1810
aI1952
aI2106
aI2216
aI2313
aI2479
aI2521
aI2918
aI3054
aI3061
aI3631
aI3643
aa(lp189
I43
aI45
aI105
aI186
aI332
aI341
aI467
aI529
aI991
aI997
aI1121
aI1472
aI1498
aI1660
aI1766
aI1968
aI2064
aI2176
aI2238
aI2250
aI2313
aI2587
aI2589
aI2730
aI2887
aI2918
aI3479
aI3720
aI3723
aa(lp190
I26
aI122
aI186
aI393
aI529
aI600
aI636
aI1071
aI1133
aI1152
aI1161
aI1411
aI1660
aI1706
aI1774
aI1924
aI2064
aI2176
aI2238
aI2250
aI2310
aI2873
aI2918
aI3034
aI3036
aI3054
aI3573
aI3587
aI3631
aa(lp191
I21
aI137
aI228
aI425
aI512
aI529
aI859
aI991
aI1429
aI1498
aI1555
aI1587
aI1833
aI1894
aI2108
aI2131
aI2188
aI2296
aI2313
aI2476
aI2758
aI2870
aI2918
aI2981
aI3125
aI3280
aI3396
aI3657
aI3720
aa(lp192
I45
aI176
aI231
aI529
aI566
aI623
aI630
aI680
aI785
aI924
aI1104
aI1461
aI1469
aI1472
aI1498
aI2004
aI2168
aI2187
aI2313
aI2428
aI2599
aI2730
aI2918
aI3044
aI3138
aI3278
aI3394
aI3458
aI3629
aa(lp193
I76
aI256
aI512
aI528
aI529
aI566
aI623
aI630
aI744
aI991
aI1499
aI1774
aI1894
aI2108
aI2188
aI2310
aI2416
aI2745
aI2918
aI2981
aI3125
aI3223
aI3246
aI3278
aI3394
aI3396
aI3629
aI3657
aI3720
aa(lp194
I24
aI159
aI293
aI363
aI449
aI529
aI608
aI660
aI779
aI785
aI1471
aI1498
aI1673
aI2064
aI2161
aI2168
aI2188
aI2262
aI2266
aI2313
aI2314
aI2472
aI2773
aI2877
aI2918
aI2945
aI2981
aI2991
aI3280
aa(lp195
I131
aI159
aI254
aI293
aI314
aI363
aI512
aI529
aI606
aI991
aI1225
aI1828
aI1894
aI2025
aI2064
aI2108
aI2161
aI2188
aI2543
aI2918
aI2945
aI2981
aI3058
aI3113
aI3125
aI3396
aI3638
aI3657
aI3720
aa(lp196
I26
aI159
aI293
aI363
aI393
aI529
aI600
aI601
aI636
aI638
aI701
aI1071
aI1133
aI1152
aI1161
aI1411
aI1854
aI1982
aI2064
aI2161
aI2556
aI2812
aI2918
aI2945
aI3054
aI3312
aI3316
aI3631
aI3721
aa(lp197
I110
aI137
aI258
aI302
aI488
aI498
aI529
aI619
aI960
aI991
aI1006
aI1093
aI1133
aI1152
aI1165
aI1498
aI1520
aI1618
aI1663
aI1771
aI1835
aI1880
aI2313
aI2466
aI2540
aI2684
aI2918
aI3239
aI3720
aa(lp198
I1
aI45
aI134
aI434
aI529
aI550
aI633
aI674
aI683
aI973
aI1083
aI1153
aI1351
aI1472
aI1498
aI1523
aI1873
aI2313
aI2428
aI2564
aI2730
aI2731
aI2833
aI2918
aI2983
aI3054
aI3067
aI3196
aI3628
aa(lp199
I45
aI163
aI429
aI529
aI843
aI958
aI990
aI1200
aI1426
aI1472
aI1498
aI1870
aI1898
aI1925
aI2175
aI2283
aI2313
aI2414
aI2416
aI2596
aI2730
aI2918
aI2925
aI3037
aI3075
aI3374
aI3381
aI3394
aI3720
aa(lp200
I8
aI45
aI68
aI142
aI465
aI529
aI1140
aI1471
aI1472
aI1498
aI1558
aI1613
aI1777
aI1807
aI1957
aI2005
aI2265
aI2313
aI2495
aI2631
aI2730
aI2871
aI2918
aI3046
aI3197
aI3358
aI3534
aI3592
aI3688
aa(lp201
I45
aI330
aI429
aI436
aI529
aI990
aI1200
aI1558
aI1709
aI1774
aI1807
aI1810
aI1865
aI1870
aI1898
aI1917
aI1957
aI2310
aI2730
aI2750
aI2855
aI2918
aI3046
aI3075
aI3197
aI3280
aI3381
aI3688
aI3720
aa(lp202
I45
aI76
aI134
aI440
aI529
aI550
aI683
aI1225
aI1273
aI1351
aI1558
aI1807
aI1873
aI1957
aI2029
aI2394
aI2428
aI2730
aI2731
aI2799
aI2887
aI2918
aI3003
aI3046
aI3054
aI3113
aI3197
aI3332
aI3688
aa(lp203
I76
aI99
aI325
aI529
aI688
aI973
aI978
aI1105
aI1331
aI1454
aI1498
aI1606
aI1643
aI1870
aI2000
aI2021
aI2179
aI2183
aI2313
aI2363
aI2625
aI2817
aI2918
aI3161
aI3207
aI3380
aI3425
aI3536
aI3720
aa(lp204
I1
aI45
aI134
aI529
aI550
aI606
aI683
aI973
aI992
aI1155
aI1267
aI1287
aI1331
aI1351
aI1591
aI1606
aI1873
aI1896
aI1959
aI2428
aI2625
aI2730
aI2731
aI2918
aI3054
aI3207
aI3346
aI3380
aI3603
aa(lp205
I368
aI375
aI391
aI529
aI545
aI606
aI609
aI1264
aI1304
aI1498
aI1607
aI1676
aI1870
aI2099
aI2204
aI2270
aI2313
aI2558
aI2918
aI2919
aI3109
aI3201
aI3206
aI3372
aI3374
aI3521
aI3629
aI3687
aI3720
aa(lp206
I4
aI45
aI160
aI286
aI489
aI529
aI637
aI901
aI1389
aI1472
aI1487
aI1498
aI1698
aI1768
aI1804
aI1841
aI1984
aI2085
aI2190
aI2287
aI2313
aI2314
aI2495
aI2730
aI2918
aI3094
aI3102
aI3188
aI3543
aa(lp207
I4
aI286
aI368
aI391
aI489
aI529
aI609
aI698
aI1010
aI1165
aI1264
aI1287
aI1304
aI1662
aI1676
aI1774
aI1804
aI1870
aI2287
aI2310
aI2439
aI2558
aI2868
aI2918
aI2919
aI3188
aI3189
aI3311
aI3720
aa(lp208
I4
aI45
aI134
aI173
aI249
aI286
aI489
aI529
aI550
aI683
aI1069
aI1351
aI1696
aI1706
aI1804
aI1873
aI2050
aI2068
aI2253
aI2287
aI2428
aI2484
aI2701
aI2730
aI2731
aI2783
aI2918
aI3054
aI3188
aa(lp209
I4
aI286
aI302
aI489
aI498
aI529
aI641
aI960
aI991
aI1006
aI1133
aI1152
aI1403
aI1662
aI1804
aI1835
aI2193
aI2287
aI2466
aI2915
aI2918
aI3016
aI3053
aI3188
aI3294
aI3371
aI3590
aI3670
aI3720
aa(lp210
I4
aI26
aI181
aI286
aI393
aI489
aI529
aI636
aI670
aI1064
aI1071
aI1092
aI1133
aI1152
aI1161
aI1293
aI1411
aI1544
aI1653
aI1804
aI2027
aI2253
aI2287
aI2918
aI3054
aI3188
aI3288
aI3631
aI3661
aa(lp211
I4
aI45
aI98
aI101
aI286
aI362
aI482
aI489
aI529
aI553
aI1277
aI1611
aI1639
aI1740
aI1804
aI1868
aI1935
aI1993
aI2287
aI2312
aI2730
aI2918
aI3188
aI3299
aI3301
aI3444
aI3559
aI3576
aI3584
aa(lp212
I4
aI15
aI29
aI223
aI286
aI378
aI489
aI529
aI571
aI740
aI1210
aI1453
aI1726
aI1804
aI2278
aI2287
aI2303
aI2557
aI2710
aI2805
aI2916
aI2918
aI3188
aI3217
aI3473
aI3491
aI3645
aI3671
aI3690
aa(lp213
I4
aI12
aI107
aI111
aI286
aI489
aI529
aI538
aI849
aI904
aI1400
aI1453
aI1650
aI1659
aI1804
aI1821
aI1997
aI2287
aI2502
aI2805
aI2918
aI3045
aI3188
aI3200
aI3266
aI3268
aI3393
aI3473
aI3730
aa(lp214
I39
aI51
aI147
aI215
aI260
aI514
aI529
aI705
aI737
aI740
aI912
aI1171
aI1275
aI1332
aI1334
aI1498
aI1519
aI1520
aI2278
aI2313
aI2360
aI2395
aI2570
aI2671
aI2718
aI2918
aI2987
aI3012
aI3096
aa(lp215
I45
aI161
aI423
aI529
aI674
aI746
aI786
aI1113
aI1162
aI1303
aI1472
aI1498
aI1945
aI2109
aI2141
aI2273
aI2313
aI2326
aI2597
aI2655
aI2663
aI2730
aI2918
aI3062
aI3099
aI3128
aI3378
aI3518
aI3595
aa(lp216
I39
aI147
aI157
aI241
aI529
aI705
aI719
aI737
aI740
aI786
aI933
aI996
aI1012
aI1275
aI1303
aI1307
aI1774
aI2141
aI2143
aI2278
aI2310
aI2655
aI2663
aI2918
aI2987
aI3012
aI3096
aI3099
aI3106
aa(lp217
I425
aI491
aI529
aI613
aI966
aI1146
aI1262
aI1331
aI1498
aI1834
aI2188
aI2225
aI2313
aI2315
aI2431
aI2449
aI2690
aI2707
aI2821
aI2844
aI2852
aI2905
aI2913
aI2918
aI2981
aI3280
aI3378
aI3560
aI3595
aa(lp218
I45
aI176
aI245
aI297
aI495
aI516
aI529
aI863
aI995
aI1132
aI1264
aI1284
aI1392
aI1472
aI1498
aI1516
aI1977
aI2313
aI2378
aI2643
aI2730
aI2744
aI2918
aI2943
aI3011
aI3130
aI3175
aI3291
aI3319
aa(lp219
I76
aI495
aI529
aI694
aI883
aI966
aI1243
aI1262
aI1511
aI1774
aI1834
aI1878
aI1977
aI2188
aI2189
aI2310
aI2431
aI2744
aI2844
aI2918
aI2981
aI3011
aI3130
aI3175
aI3236
aI3378
aI3408
aI3560
aI3595
aa(lp220
I112
aI529
aI769
aI1024
aI1208
aI1284
aI1396
aI1457
aI1498
aI1658
aI1679
aI1722
aI1904
aI2059
aI2188
aI2313
aI2398
aI2674
aI2918
aI2920
aI2981
aI3213
aI3280
aI3291
aI3318
aI3415
aI3569
aI3655
aI3738
aa(lp221
I529
aI606
aI857
aI966
aI1024
aI1208
aI1225
aI1262
aI1307
aI1679
aI1722
aI1834
aI2188
aI2196
aI2355
aI2397
aI2431
aI2674
aI2844
aI2892
aI2918
aI2981
aI3113
aI3285
aI3378
aI3560
aI3595
aI3655
aI3733
aa(lp222
I76
aI208
aI463
aI529
aI596
aI827
aI873
aI1149
aI1284
aI1330
aI1445
aI1452
aI1479
aI1498
aI1558
aI1584
aI1643
aI1742
aI1974
aI2179
aI2285
aI2313
aI2511
aI2918
aI3291
aI3463
aI3560
aI3578
aI3739
aa(lp223
I106
aI240
aI374
aI529
aI596
aI778
aI966
aI1155
aI1165
aI1262
aI1267
aI1330
aI1445
aI1558
aI1584
aI1834
aI1974
aI2188
aI2431
aI2612
aI2844
aI2918
aI2981
aI3378
aI3463
aI3497
aI3560
aI3566
aI3595
aa(lp224
I39
aI63
aI123
aI147
aI173
aI523
aI529
aI572
aI596
aI705
aI737
aI740
aI1275
aI1330
aI1368
aI1445
aI1558
aI1974
aI1995
aI2278
aI2783
aI2918
aI2987
aI3012
aI3096
aI3286
aI3399
aI3463
aI3526
aa(lp225
I80
aI529
aI531
aI569
aI671
aI935
aI973
aI1123
aI1498
aI1536
aI1694
aI1706
aI2096
aI2298
aI2313
aI2509
aI2522
aI2619
aI2666
aI2692
aI2817
aI2918
aI2965
aI3161
aI3249
aI3378
aI3595
aI3608
aI3674
aa(lp226
I45
aI172
aI233
aI264
aI455
aI529
aI543
aI551
aI869
aI934
aI964
aI1377
aI1472
aI1498
aI1510
aI1935
aI2206
aI2313
aI2491
aI2524
aI2525
aI2590
aI2730
aI2918
aI3033
aI3132
aI3275
aI3374
aI3500
aa(lp227
I136
aI529
aI569
aI666
aI667
aI934
aI935
aI1114
aI1280
aI1377
aI1510
aI1536
aI1694
aI1774
aI2254
aI2310
aI2491
aI2509
aI2619
aI2666
aI2692
aI2827
aI2852
aI2918
aI3033
aI3132
aI3378
aI3545
aI3595
aa(lp228
I47
aI366
aI529
aI863
aI1090
aI1183
aI1261
aI1269
aI1498
aI1502
aI1626
aI2188
aI2192
aI2276
aI2313
aI2396
aI2524
aI2603
aI2672
aI2918
aI2981
aI2995
aI3032
aI3061
aI3079
aI3280
aI3500
aI3619
aI3649
aa(lp229
I366
aI529
aI569
aI935
aI1225
aI1346
aI1536
aI1694
aI1720
aI1776
aI1936
aI2192
aI2396
aI2445
aI2509
aI2551
aI2603
aI2619
aI2666
aI2692
aI2708
aI2785
aI2842
aI2918
aI3061
aI3113
aI3378
aI3595
aI3619
aa(lp230
I39
aI65
aI147
aI366
aI510
aI529
aI705
aI737
aI740
aI885
aI1030
aI1275
aI1573
aI1738
aI2192
aI2278
aI2396
aI2603
aI2712
aI2782
aI2918
aI2987
aI3012
aI3061
aI3096
aI3160
aI3437
aI3619
aI3703
aa(lp231
I222
aI394
aI529
aI554
aI560
aI840
aI1023
aI1239
aI1388
aI1456
aI1498
aI1552
aI1763
aI2148
aI2313
aI2337
aI2437
aI2462
aI2583
aI2593
aI2815
aI2887
aI2891
aI2918
aI2940
aI3043
aI3316
aI3378
aI3595
aa(lp232
I45
aI54
aI350
aI392
aI529
aI1136
aI1221
aI1287
aI1419
aI1472
aI1498
aI1727
aI1905
aI2000
aI2181
aI2313
aI2407
aI2501
aI2673
aI2693
aI2730
aI2918
aI3270
aI3309
aI3336
aI3441
aI3496
aI3533
aI3655
aa(lp233
I45
aI89
aI368
aI529
aI736
aI879
aI939
aI1320
aI1331
aI1369
aI1460
aI1472
aI1498
aI1659
aI1805
aI2049
aI2116
aI2150
aI2198
aI2285
aI2313
aI2547
aI2657
aI2697
aI2730
aI2918
aI3099
aI3218
aI3295
aa(lp234
I45
aI85
aI304
aI511
aI524
aI529
aI806
aI852
aI1264
aI1472
aI1486
aI1498
aI1552
aI1620
aI1634
aI1942
aI2091
aI2100
aI2215
aI2313
aI2335
aI2546
aI2682
aI2730
aI2852
aI2857
aI2918
aI2956
aI3130
aa(lp235
I45
aI171
aI182
aI246
aI368
aI414
aI529
aI806
aI989
aI1181
aI1320
aI1369
aI1552
aI1659
aI1774
aI1805
aI2049
aI2091
aI2198
aI2310
aI2349
aI2419
aI2657
aI2682
aI2730
aI2918
aI2956
aI3130
aI3280
aa(lp236
I85
aI338
aI514
aI529
aI574
aI677
aI905
aI1223
aI1236
aI1406
aI1498
aI1770
aI1953
aI1963
aI2188
aI2313
aI2714
aI2778
aI2857
aI2918
aI2981
aI2985
aI3090
aI3130
aI3280
aI3309
aI3455
aI3524
aI3569
aa(lp237
I45
aI76
aI215
aI246
aI368
aI514
aI529
aI677
aI1085
aI1097
aI1225
aI1320
aI1369
aI1515
aI1659
aI1805
aI1953
aI1963
aI2049
aI2198
aI2357
aI2610
aI2657
aI2730
aI2778
aI2918
aI3113
aI3130
aI3443
aa(lp238
I45
aI86
aI504
aI514
aI529
aI530
aI606
aI677
aI756
aI1136
aI1155
aI1221
aI1267
aI1953
aI1963
aI2000
aI2181
aI2407
aI2673
aI2714
aI2730
aI2778
aI2918
aI3130
aI3245
aI3309
aI3441
aI3516
aI3717
aa(lp239
I514
aI529
aI560
aI598
aI677
aI701
aI1023
aI1239
aI1388
aI1668
aI1669
aI1674
aI1743
aI1763
aI1953
aI1963
aI1982
aI2148
aI2702
aI2778
aI2815
aI2862
aI2891
aI2918
aI3130
aI3378
aI3464
aI3595
aI3624
aa(lp240
I161
aI425
aI529
aI711
aI729
aI796
aI969
aI1133
aI1136
aI1152
aI1165
aI1221
aI1418
aI1496
aI1498
aI1655
aI1779
aI1943
aI2313
aI2662
aI2802
aI2859
aI2918
aI3010
aI3142
aI3274
aI3432
aI3498
aI3569
aa(lp241
I9
aI41
aI45
aI176
aI280
aI321
aI529
aI552
aI1151
aI1219
aI1472
aI1498
aI1845
aI1848
aI1966
aI2040
aI2075
aI2313
aI2339
aI2665
aI2730
aI2918
aI3013
aI3188
aI3467
aI3489
aI3513
aI3531
aI3655
aa(lp242
I9
aI161
aI321
aI529
aI800
aI920
aI1018
aI1133
aI1136
aI1152
aI1213
aI1219
aI1221
aI1418
aI1655
aI1706
aI1774
aI1810
aI1937
aI2310
aI2339
aI2467
aI2662
aI2728
aI2918
aI3010
aI3188
aI3274
aI3655
aa(lp243
I113
aI341
aI466
aI529
aI705
aI805
aI1025
aI1109
aI1138
aI1498
aI1772
aI1988
aI2188
aI2259
aI2285
aI2313
aI2487
aI2516
aI2611
aI2667
aI2861
aI2918
aI2981
aI3013
aI3136
aI3280
aI3424
aI3465
aI3467
aa(lp244
I45
aI201
aI209
aI304
aI405
aI453
aI529
aI635
aI697
aI1385
aI1395
aI1472
aI1498
aI1552
aI1924
aI2313
aI2462
aI2650
aI2730
aI2918
aI3019
aI3072
aI3124
aI3153
aI3345
aI3462
aI3466
aI3595
aI3698
aa(lp245
I76
aI183
aI209
aI341
aI405
aI453
aI529
aI555
aI705
aI815
aI1025
aI1405
aI1552
aI1772
aI1774
aI1836
aI2188
aI2310
aI2487
aI2810
aI2861
aI2918
aI2981
aI3013
aI3072
aI3153
aI3310
aI3467
aI3539
aa(lp246
I370
aI529
aI877
aI915
aI973
aI1034
aI1331
aI1385
aI1490
aI1498
aI1741
aI1900
aI2188
aI2313
aI2442
aI2449
aI2451
aI2598
aI2685
aI2872
aI2918
aI2981
aI3131
aI3155
aI3259
aI3280
aI3309
aI3554
aI3595
aa(lp247
I45
aI151
aI191
aI236
aI364
aI529
aI812
aI825
aI1252
aI1264
aI1286
aI1459
aI1472
aI1498
aI1503
aI1659
aI1736
aI1857
aI2313
aI2322
aI2529
aI2730
aI2918
aI2994
aI3093
aI3099
aI3241
aI3256
aI3374
aa(lp248
I45
aI50
aI58
aI445
aI505
aI529
aI539
aI717
aI890
aI901
aI942
aI1124
aI1248
aI1338
aI1472
aI1491
aI1498
aI1595
aI1798
aI2313
aI2460
aI2495
aI2568
aI2730
aI2852
aI2918
aI3040
aI3083
aI3515
aa(lp249
I45
aI151
aI156
aI529
aI717
aI825
aI886
aI944
aI1124
aI1252
aI1264
aI1308
aI1491
aI1595
aI1659
aI1736
aI1774
aI1970
aI2281
aI2295
aI2310
aI2322
aI2568
aI2730
aI2887
aI2918
aI2994
aI3280
aI3515
aa(lp250
I289
aI529
aI602
aI606
aI717
aI877
aI1062
aI1124
aI1225
aI1385
aI1491
aI1595
aI1849
aI1906
aI2188
aI2244
aI2568
aI2598
aI2918
aI2958
aI2981
aI3113
aI3131
aI3155
aI3309
aI3515
aI3554
aI3577
aI3595
aa(lp251
I204
aI341
aI529
aI701
aI705
aI717
aI893
aI1025
aI1028
aI1124
aI1491
aI1595
aI1706
aI1746
aI1772
aI1882
aI1982
aI2188
aI2487
aI2568
aI2743
aI2838
aI2861
aI2918
aI2981
aI3013
aI3467
aI3515
aI3624
aa(lp252
I161
aI382
aI529
aI641
aI686
aI717
aI1079
aI1115
aI1124
aI1133
aI1136
aI1152
aI1221
aI1370
aI1418
aI1491
aI1595
aI1655
aI2526
aI2568
aI2586
aI2662
aI2918
aI3010
aI3232
aI3274
aI3371
aI3515
aI3590
aa(lp253
I55
aI296
aI452
aI528
aI529
aI559
aI582
aI724
aI766
aI847
aI888
aI1417
aI1441
aI1498
aI1563
aI1693
aI1919
aI1951
aI2254
aI2313
aI2443
aI2880
aI2918
aI3013
aI3099
aI3333
aI3382
aI3467
aI3580
aa(lp254
I45
aI211
aI244
aI506
aI529
aI819
aI968
aI1001
aI1141
aI1463
aI1472
aI1498
aI1512
aI2064
aI2257
aI2262
aI2313
aI2370
aI2422
aI2444
aI2730
aI2739
aI2852
aI2918
aI2948
aI2991
aI3234
aI3503
aI3621
aa(lp255
I55
aI211
aI296
aI311
aI452
aI529
aI559
aI582
aI662
aI778
aI847
aI900
aI1141
aI1534
aI1693
aI1774
aI1919
aI2058
aI2064
aI2310
aI2370
aI2739
aI2785
aI2918
aI2948
aI3013
aI3292
aI3467
aI3572
aa(lp256
I137
aI170
aI244
aI469
aI514
aI529
aI541
aI600
aI808
aI928
aI952
aI956
aI1387
aI1498
aI2064
aI2081
aI2188
aI2313
aI2580
aI2654
aI2711
aI2918
aI2981
aI3178
aI3233
aI3280
aI3621
aI3631
aI3662
aa(lp257
I45
aI137
aI161
aI435
aI438
aI529
aI548
aI738
aI1042
aI1472
aI1498
aI1520
aI1521
aI1618
aI1723
aI1897
aI1928
aI2218
aI2313
aI2428
aI2465
aI2486
aI2544
aI2664
aI2730
aI2875
aI2918
aI3394
aI3402
aa(lp258
I76
aI170
aI244
aI438
aI529
aI548
aI738
aI1269
aI1387
aI1446
aI1478
aI1520
aI1723
aI1774
aI2081
aI2188
aI2310
aI2711
aI2793
aI2918
aI2981
aI3023
aI3385
aI3394
aI3439
aI3621
aI3631
aI3662
aI3683
aa(lp259
I219
aI422
aI529
aI603
aI642
aI674
aI726
aI1066
aI1074
aI1471
aI1498
aI1521
aI1561
aI1734
aI2188
aI2313
aI2454
aI2459
aI2531
aI2544
aI2576
aI2767
aI2797
aI2918
aI2981
aI3258
aI3280
aI3360
aI3646
aa(lp260
I170
aI219
aI244
aI529
aI603
aI606
aI726
aI804
aI1074
aI1225
aI1287
aI1387
aI1809
aI2002
aI2081
aI2188
aI2245
aI2531
aI2711
aI2767
aI2843
aI2918
aI2981
aI3113
aI3621
aI3631
aI3639
aI3662
aI3726
aa(lp261
I27
aI76
aI79
aI152
aI250
aI368
aI424
aI529
aI973
aI988
aI1036
aI1238
aI1324
aI1498
aI1521
aI1643
aI1979
aI2179
aI2211
aI2313
aI2356
aI2544
aI2592
aI2918
aI2946
aI3290
aI3408
aI3561
aI3734
aa(lp262
I45
aI64
aI166
aI175
aI213
aI453
aI525
aI529
aI577
aI953
aI1270
aI1457
aI1472
aI1498
aI1500
aI1569
aI1883
aI2313
aI2401
aI2560
aI2607
aI2720
aI2730
aI2790
aI2794
aI2918
aI3173
aI3220
aI3374
aa(lp263
I250
aI368
aI453
aI529
aI577
aI606
aI751
aI1195
aI1235
aI1238
aI1324
aI1521
aI1643
aI1774
aI1815
aI1883
aI2179
aI2310
aI2541
aI2544
aI2560
aI2720
aI2790
aI2918
aI2946
aI3149
aI3446
aI3561
aI3679
aa(lp264
I213
aI255
aI282
aI347
aI464
aI499
aI529
aI685
aI780
aI799
aI934
aI1013
aI1192
aI1270
aI1331
aI1498
aI1741
aI1910
aI2153
aI2188
aI2256
aI2313
aI2427
aI2567
aI2656
aI2918
aI2981
aI3280
aI3675
aa(lp265
I45
aI273
aI303
aI323
aI529
aI656
aI706
aI825
aI1264
aI1269
aI1464
aI1472
aI1498
aI1556
aI1789
aI1811
aI1813
aI1829
aI1860
aI2011
aI2313
aI2519
aI2596
aI2640
aI2730
aI2918
aI3049
aI3364
aI3421
aa(lp266
I45
aI425
aI529
aI805
aI901
aI1259
aI1421
aI1472
aI1473
aI1498
aI1540
aI1541
aI1712
aI1777
aI2034
aI2309
aI2313
aI2448
aI2459
aI2477
aI2503
aI2533
aI2563
aI2726
aI2730
aI2918
aI3322
aI3499
aI3613
aa(lp267
I45
aI62
aI273
aI373
aI425
aI479
aI529
aI656
aI706
aI805
aI825
aI1137
aI1264
aI1421
aI1473
aI1556
aI1774
aI1860
aI2011
aI2034
aI2310
aI2730
aI2918
aI3267
aI3279
aI3280
aI3322
aI3408
aI3636
aa(lp268
I72
aI213
aI425
aI529
aI606
aI665
aI728
aI799
aI805
aI1046
aI1134
aI1192
aI1225
aI1270
aI1421
aI1473
aI1847
aI1910
aI2034
aI2153
aI2188
aI2256
aI2380
aI2567
aI2918
aI2981
aI3113
aI3322
aI3470
aa(lp269
I250
aI267
aI368
aI425
aI529
aI701
aI805
aI1189
aI1211
aI1238
aI1324
aI1421
aI1473
aI1521
aI1643
aI1982
aI2034
aI2115
aI2136
aI2179
aI2254
aI2544
aI2918
aI2926
aI2946
aI3286
aI3322
aI3376
aI3561
aa(lp270
I36
aI170
aI244
aI425
aI529
aI710
aI805
aI1387
aI1421
aI1473
aI2034
aI2081
aI2188
aI2280
aI2711
aI2883
aI2918
aI2981
aI3076
aI3205
aI3316
aI3322
aI3352
aI3442
aI3550
aI3621
aI3631
aI3662
aI3680
aa(lp271
I55
aI296
aI425
aI452
aI459
aI466
aI529
aI559
aI582
aI805
aI836
aI847
aI1064
aI1191
aI1215
aI1310
aI1353
aI1421
aI1473
aI1693
aI1714
aI1786
aI1919
aI2034
aI2113
aI2918
aI3013
aI3322
aI3467
aa(lp272
I6
aI161
aI425
aI431
aI529
aI590
aI805
aI930
aI1133
aI1136
aI1152
aI1221
aI1418
aI1421
aI1473
aI1496
aI1655
aI2034
aI2120
aI2343
aI2662
aI2879
aI2918
aI3010
aI3274
aI3301
aI3322
aI3367
aI3444
aa(lp273
I7
aI355
aI425
aI529
aI560
aI715
aI805
aI1023
aI1111
aI1131
aI1239
aI1342
aI1365
aI1388
aI1421
aI1465
aI1473
aI1533
aI1575
aI1763
aI2034
aI2148
aI2815
aI2891
aI2918
aI3322
aI3378
aI3595
aI3609
aa(lp274
I39
aI147
aI212
aI425
aI428
aI456
aI462
aI529
aI693
aI705
aI737
aI740
aI805
aI809
aI1138
aI1275
aI1362
aI1421
aI1473
aI1670
aI2034
aI2087
aI2278
aI2372
aI2918
aI2987
aI3012
aI3096
aI3322
aa(lp275
I12
aI70
aI81
aI107
aI111
aI185
aI425
aI529
aI538
aI805
aI868
aI880
aI904
aI1218
aI1421
aI1442
aI1473
aI1650
aI1659
aI1997
aI2034
aI2111
aI2159
aI2805
aI2918
aI3117
aI3266
aI3322
aI3682
aa(lp276
I425
aI529
aI805
aI826
aI1022
aI1173
aI1233
aI1421
aI1473
aI1852
aI1892
aI1960
aI2034
aI2065
aI2261
aI2271
aI2286
aI2436
aI2754
aI2860
aI2918
aI3092
aI3195
aI3309
aI3322
aI3502
aI3540
aI3656
aI3685
aa(lp277
I113
aI176
aI342
aI401
aI529
aI673
aI697
aI967
aI1156
aI1308
aI1319
aI1333
aI1374
aI1498
aI1592
aI1595
aI1659
aI1704
aI1784
aI1832
aI1886
aI2101
aI2313
aI2918
aI3152
aI3159
aI3252
aI3266
aI3702
aa(lp278
I45
aI365
aI405
aI452
aI529
aI870
aI1158
aI1288
aI1316
aI1331
aI1349
aI1472
aI1488
aI1498
aI1520
aI1565
aI1719
aI1791
aI1971
aI2169
aI2313
aI2349
aI2517
aI2651
aI2730
aI2918
aI3225
aI3495
aI3544
aa(lp279
I45
aI244
aI251
aI335
aI453
aI529
aI674
aI877
aI1264
aI1382
aI1472
aI1498
aI1767
aI1893
aI2032
aI2044
aI2313
aI2553
aI2730
aI2790
aI2918
aI2976
aI3168
aI3170
aI3186
aI3281
aI3524
aI3530
aI3659
aa(lp280
I45
aI139
aI335
aI448
aI452
aI453
aI529
aI624
aI767
aI1288
aI1349
aI1488
aI1719
aI1767
aI1774
aI1971
aI2033
aI2044
aI2169
aI2310
aI2418
aI2730
aI2790
aI2849
aI2918
aI3280
aI3408
aI3530
aI3544
aa(lp281
I254
aI335
aI453
aI529
aI672
aI697
aI789
aI967
aI1225
aI1548
aI1592
aI1654
aI1659
aI1704
aI1767
aI1784
aI1832
aI2039
aI2044
aI2471
aI2600
aI2790
aI2918
aI3113
aI3159
aI3252
aI3266
aI3529
aI3530
aa(lp282
I76
aI301
aI499
aI529
aI581
aI1060
aI1207
aI1290
aI1331
aI1498
aI1643
aI1647
aI1739
aI1741
aI2026
aI2074
aI2169
aI2179
aI2256
aI2313
aI2596
aI2651
aI2853
aI2918
aI3339
aI3404
aI3481
aI3544
aI3709
aa(lp283
I45
aI425
aI529
aI656
aI678
aI706
aI825
aI858
aI917
aI1137
aI1178
aI1264
aI1391
aI1472
aI1498
aI1508
aI1578
aI1777
aI1787
aI2313
aI2330
aI2719
aI2730
aI2735
aI2918
aI2957
aI3063
aI3123
aI3613
aa(lp284
I20
aI45
aI94
aI176
aI529
aI561
aI700
aI901
aI1026
aI1107
aI1117
aI1176
aI1407
aI1434
aI1472
aI1498
aI2008
aI2040
aI2313
aI2430
aI2730
aI2737
aI2918
aI2962
aI3314
aI3361
aI3405
aI3483
aI3655
aa(lp285
I20
aI45
aI529
aI620
aI656
aI678
aI700
aI706
aI825
aI1026
aI1107
aI1178
aI1264
aI1279
aI1774
aI2294
aI2310
aI2341
aI2349
aI2510
aI2518
aI2730
aI2918
aI2951
aI2957
aI3063
aI3280
aI3361
aI3655
aa(lp286
I88
aI529
aI792
aI807
aI895
aI901
aI1214
aI1300
aI1498
aI1863
aI2008
aI2171
aI2188
aI2285
aI2288
aI2313
aI2596
aI2642
aI2659
aI2890
aI2918
aI2981
aI3014
aI3029
aI3065
aI3119
aI3280
aI3524
aI3707
aa(lp287
I45
aI76
aI285
aI323
aI529
aI656
aI678
aI706
aI792
aI825
aI895
aI1178
aI1225
aI1264
aI1269
aI1300
aI2007
aI2171
aI2596
aI2642
aI2730
aI2918
aI2957
aI2963
aI3049
aI3063
aI3113
aI3208
aI3421
aa(lp288
I33
aI76
aI529
aI837
aI901
aI1389
aI1498
aI1522
aI1643
aI1677
aI1777
aI2008
aI2179
aI2210
aI2227
aI2307
aI2313
aI2459
aI2503
aI2918
aI3027
aI3028
aI3130
aI3188
aI3271
aI3414
aI3445
aI3485
aI3525
aa(lp289
I33
aI45
aI62
aI529
aI606
aI656
aI678
aI706
aI825
aI1155
aI1178
aI1264
aI1267
aI1522
aI2189
aI2227
aI2628
aI2730
aI2753
aI2777
aI2850
aI2918
aI2957
aI3028
aI3063
aI3130
aI3188
aI3189
aI3408
aa(lp290
I33
aI301
aI411
aI529
aI701
aI1207
aI1522
aI1643
aI1739
aI1775
aI1982
aI2026
aI2114
aI2169
aI2179
aI2227
aI2254
aI2256
aI2380
aI2626
aI2918
aI3028
aI3130
aI3171
aI3188
aI3460
aI3481
aI3544
aI3692
aa(lp291
I33
aI529
aI697
aI772
aI929
aI967
aI1455
aI1522
aI1592
aI1627
aI1659
aI1704
aI1784
aI1832
aI2227
aI2280
aI2819
aI2918
aI2972
aI3016
aI3028
aI3130
aI3159
aI3188
aI3252
aI3266
aI3268
aI3442
aI3484
aa(lp292
I33
aI42
aI206
aI497
aI529
aI734
aI1173
aI1233
aI1302
aI1522
aI1852
aI1960
aI2035
aI2166
aI2170
aI2227
aI2261
aI2286
aI2606
aI2860
aI2918
aI3028
aI3030
aI3130
aI3188
aI3195
aI3309
aI3540
aI3719
aa(lp293
I33
aI41
aI587
aI984
aI1157
aI1397
aI1413
aI1522
aI1799
aI1913
aI2227
aI2665
aI2918
aI3028
aI3130
aI3188
aa(lp294
I77
aI205
aI327
aI529
aI616
aI705
aI754
aI851
aI871
aI1208
aI1367
aI1372
aI1404
aI1498
aI1514
aI1728
aI2024
aI2064
aI2093
aI2118
aI2236
aI2313
aI2635
aI2768
aI2918
aI3195
aI3540
aI3548
aI3569
aa(lp295
I45
aI137
aI403
aI529
aI749
aI827
aI1240
aI1253
aI1314
aI1472
aI1498
aI1532
aI1552
aI2313
aI2345
aI2462
aI2730
aI2766
aI2825
aI2897
aI2918
aI3181
aI3253
aI3397
aI3450
aI3489
aI3513
aI3595
aI3655
aa(lp296
I205
aI529
aI555
aI705
aI754
aI816
aI1253
aI1372
aI1404
aI1514
aI1552
aI1774
aI2236
aI2310
aI2341
aI2349
aI2485
aI2562
aI2768
aI2897
aI2918
aI3047
aI3195
aI3253
aI3397
aI3407
aI3540
aI3655
aI3708
aa(lp297
I57
aI104
aI468
aI529
aI567
aI669
aI841
aI1292
aI1425
aI1498
aI1596
aI1682
aI2188
aI2285
aI2313
aI2825
aI2918
aI2981
aI3065
aI3147
aI3155
aI3280
aI3309
aI3351
aI3488
aI3524
aI3595
aI3629
aI3700
aa(lp298
I45
aI304
aI444
aI529
aI583
aI770
aI912
aI1220
aI1373
aI1456
aI1472
aI1498
aI1614
aI1659
aI1844
aI1876
aI1903
aI1911
aI2313
aI2314
aI2620
aI2698
aI2730
aI2918
aI2931
aI3172
aI3174
aI3194
aI3244
aa(lp299
I76
aI529
aI588
aI669
aI770
aI841
aI912
aI1220
aI1456
aI1614
aI1745
aI1774
aI1810
aI1840
aI1978
aI2188
aI2310
aI2825
aI2918
aI2981
aI3155
aI3174
aI3309
aI3369
aI3488
aI3510
aI3524
aI3595
aI3725
aa(lp300
I59
aI341
aI444
aI496
aI529
aI565
aI704
aI973
aI1187
aI1208
aI1287
aI1416
aI1443
aI1498
aI1591
aI1657
aI1659
aI1881
aI2063
aI2180
aI2188
aI2313
aI2324
aI2529
aI2663
aI2918
aI2981
aI3280
aI3699
aa(lp301
I418
aI529
aI565
aI606
aI669
aI702
aI841
aI892
aI973
aI1142
aI1208
aI1225
aI1384
aI2022
aI2063
aI2188
aI2529
aI2663
aI2825
aI2892
aI2918
aI2981
aI2999
aI3113
aI3155
aI3309
aI3488
aI3524
aI3595
aa(lp302
I76
aI162
aI444
aI453
aI454
aI529
aI546
aI654
aI827
aI1124
aI1181
aI1498
aI1552
aI1643
aI1659
aI1692
aI2179
aI2313
aI2431
aI2512
aI2766
aI2863
aI2918
aI2924
aI3028
aI3220
aI3347
aI3374
aI3615
aa(lp303
I124
aI295
aI453
aI529
aI669
aI841
aI1124
aI1155
aI1165
aI1267
aI1552
aI1692
aI1958
aI2188
aI2462
aI2553
aI2670
aI2825
aI2918
aI2981
aI3026
aI3028
aI3155
aI3309
aI3347
aI3488
aI3524
aI3595
aI3654
aa(lp304
I173
aI197
aI205
aI387
aI410
aI453
aI529
aI555
aI705
aI754
aI783
aI1124
aI1372
aI1404
aI1514
aI1552
aI1692
aI2236
aI2768
aI2783
aI2918
aI3028
aI3195
aI3347
aI3407
aI3540
aI3589
aI3737
aI3741
aa(lp305
I55
aI77
aI237
aI529
aI569
aI787
aI973
aI1208
aI1229
aI1498
aI1593
aI1706
aI1741
aI2022
aI2313
aI2405
aI2509
aI2825
aI2892
aI2899
aI2918
aI3105
aI3155
aI3204
aI3259
aI3277
aI3309
aI3579
aI3595
aa(lp306
I45
aI202
aI364
aI403
aI529
aI825
aI827
aI846
aI926
aI1095
aI1098
aI1472
aI1476
aI1498
aI1513
aI1558
aI1585
aI1604
aI1659
aI2079
aI2163
aI2313
aI2497
aI2709
aI2730
aI2863
aI2918
aI3374
aI3557
aa(lp307
I55
aI237
aI329
aI529
aI569
aI1033
aI1095
aI1513
aI1558
aI1585
aI1593
aI1733
aI1760
aI1774
aI2079
aI2254
aI2310
aI2349
aI2497
aI2509
aI2825
aI2899
aI2918
aI3086
aI3145
aI3155
aI3191
aI3309
aI3595
aa(lp308
I529
aI801
aI822
aI1357
aI1498
aI1605
aI1659
aI1701
aI1735
aI2098
aI2151
aI2163
aI2188
aI2313
aI2354
aI2494
aI2814
aI2817
aI2830
aI2914
aI2918
aI2981
aI3015
aI3188
aI3209
aI3268
aI3280
aI3524
aI3655
aa(lp309
I31
aI45
aI180
aI473
aI529
aI605
aI705
aI1051
aI1295
aI1472
aI1498
aI1520
aI1546
aI1689
aI1715
aI1935
aI1964
aI2137
aI2285
aI2313
aI2699
aI2730
aI2779
aI2918
aI2934
aI3157
aI3166
aI3528
aI3643
aa(lp310
I45
aI304
aI453
aI529
aI674
aI696
aI708
aI758
aI765
aI845
aI1472
aI1498
aI1685
aI1782
aI1864
aI2313
aI2700
aI2704
aI2730
aI2874
aI2889
aI2895
aI2918
aI3466
aI3469
aI3595
aI3633
aI3659
aI3723
aa(lp311
I31
aI45
aI127
aI176
aI180
aI453
aI507
aI529
aI705
aI758
aI777
aI1212
aI1546
aI1689
aI1774
aI1782
aI1907
aI1935
aI2217
aI2310
aI2700
aI2730
aI2779
aI2918
aI2934
aI3007
aI3280
aI3469
aI3633
aa(lp312
I275
aI409
aI425
aI527
aI529
aI845
aI943
aI1088
aI1274
aI1340
aI1498
aI1583
aI1741
aI1752
aI1839
aI1971
aI2041
aI2188
aI2313
aI2455
aI2691
aI2721
aI2742
aI2918
aI2981
aI3280
aI3433
aI3595
aI3637
aa(lp313
I31
aI45
aI76
aI180
aI292
aI425
aI529
aI705
aI861
aI1225
aI1340
aI1482
aI1546
aI1689
aI1749
aI1752
aI1935
aI2041
aI2314
aI2691
aI2730
aI2742
aI2779
aI2918
aI2934
aI3077
aI3113
aI3151
aI3538
aa(lp314
I389
aI425
aI529
aI1155
aI1165
aI1184
aI1267
aI1340
aI1357
aI1364
aI1659
aI1701
aI1752
aI2041
aI2163
aI2188
aI2349
aI2354
aI2402
aI2494
aI2653
aI2691
aI2742
aI2789
aI2830
aI2918
aI2981
aI3524
aI3669
aa(lp315
I31
aI88
aI176
aI214
aI270
aI391
aI397
aI529
aI606
aI1052
aI1394
aI1498
aI1676
aI1695
aI1930
aI1975
aI2047
aI2069
aI2313
aI2361
aI2572
aI2596
aI2820
aI2832
aI2858
aI2918
aI2934
aI3198
aI3524
aa(lp316
I45
aI133
aI239
aI305
aI503
aI529
aI534
aI718
aI774
aI839
aI860
aI911
aI1177
aI1208
aI1242
aI1472
aI1498
aI1631
aI1777
aI1971
aI2313
aI2317
aI2353
aI2424
aI2633
aI2730
aI2918
aI2950
aI3655
aa(lp317
I31
aI214
aI391
aI458
aI529
aI821
aI839
aI1165
aI1177
aI1208
aI1222
aI1242
aI1347
aI1631
aI1676
aI1735
aI1774
aI1975
aI2069
aI2310
aI2341
aI2349
aI2653
aI2820
aI2832
aI2918
aI2934
aI3524
aI3655
aa(lp318
I433
aI529
aI775
aI795
aI827
aI842
aI1094
aI1129
aI1408
aI1483
aI1498
aI1713
aI1735
aI2188
aI2277
aI2284
aI2285
aI2313
aI2317
aI2424
aI2513
aI2734
aI2918
aI2981
aI3065
aI3280
aI3327
aI3524
aI3655
aa(lp319
I31
aI78
aI128
aI214
aI391
aI529
aI795
aI1129
aI1225
aI1269
aI1676
aI1706
aI1735
aI1975
aI2069
aI2277
aI2284
aI2376
aI2513
aI2820
aI2832
aI2918
aI2934
aI3113
aI3320
aI3400
aI3524
aI3655
aI3712
aa(lp320
I254
aI269
aI529
aI795
aI1021
aI1129
aI1357
aI1659
aI1701
aI1735
aI2019
aI2163
aI2188
aI2263
aI2277
aI2284
aI2354
aI2359
aI2494
aI2513
aI2713
aI2785
aI2830
aI2918
aI2981
aI3371
aI3524
aI3590
aI3655
aa(lp321
I55
aI165
aI237
aI510
aI521
aI529
aI569
aI604
aI795
aI998
aI1129
aI1143
aI1263
aI1593
aI1738
aI2277
aI2284
aI2289
aI2509
aI2513
aI2681
aI2825
aI2886
aI2899
aI2918
aI3155
aI3309
aI3595
aI3655
aa(lp322
I205
aI379
aI529
aI705
aI754
aI795
aI916
aI1049
aI1129
aI1372
aI1404
aI1514
aI1731
aI1737
aI2178
aI2236
aI2277
aI2284
aI2485
aI2513
aI2644
aI2768
aI2816
aI2918
aI2939
aI3195
aI3540
aI3655
aI3706
aa(lp323
I326
aI395
aI509
aI529
aI1048
aI1363
aI1498
aI1511
aI1520
aI1795
aI2201
aI2232
aI2285
aI2302
aI2303
aI2313
aI2500
aI2559
aI2744
aI2825
aI2918
aI3087
aI3157
aI3217
aI3373
aI3435
aI3547
aI3595
aI3600
aa(lp324
I45
aI145
aI167
aI178
aI304
aI453
aI529
aI674
aI1067
aI1247
aI1345
aI1472
aI1498
aI1552
aI2072
aI2313
aI2508
aI2648
aI2678
aI2730
aI2895
aI2918
aI2920
aI3028
aI3199
aI3203
aI3340
aI3466
aI3659
aa(lp325
I145
aI176
aI226
aI453
aI529
aI1048
aI1064
aI1212
aI1237
aI1552
aI1774
aI1795
aI1867
aI2201
aI2232
aI2303
aI2310
aI2462
aI2637
aI2678
aI2825
aI2918
aI3028
aI3217
aI3340
aI3427
aI3435
aI3547
aI3595
aa(lp326
I77
aI178
aI207
aI529
aI931
aI1076
aI1241
aI1380
aI1401
aI1456
aI1498
aI1579
aI1741
aI1971
aI1986
aI2188
aI2313
aI2329
aI2606
aI2918
aI2981
aI3055
aI3116
aI3188
aI3203
aI3280
aI3309
aI3349
aI3433
aa(lp327
I45
aI140
aI216
aI333
aI403
aI453
aI529
aI705
aI825
aI1268
aI1287
aI1472
aI1498
aI1547
aI1588
aI1614
aI1656
aI1659
aI1796
aI1826
aI1911
aI1949
aI2246
aI2313
aI2387
aI2425
aI2730
aI2918
aI3110
aa(lp328
I76
aI178
aI453
aI529
aI957
aI1241
aI1307
aI1614
aI1687
aI1774
aI1796
aI1838
aI1949
aI1971
aI1978
aI2033
aI2188
aI2310
aI2387
aI2534
aI2918
aI2966
aI2981
aI3055
aI3110
aI3116
aI3203
aI3309
aI3349
aa(lp329
I453
aI529
aI588
aI692
aI1048
aI1061
aI1072
aI1155
aI1267
aI1564
aI1614
aI1795
aI1796
aI1888
aI1949
aI2201
aI2208
aI2232
aI2303
aI2387
aI2637
aI2825
aI2918
aI3110
aI3217
aI3435
aI3547
aI3595
aI3625
aa(lp330
I178
aI322
aI391
aI398
aI453
aI529
aI606
aI621
aI661
aI745
aI1186
aI1246
aI1345
aI1498
aI1550
aI1552
aI1652
aI1676
aI1741
aI1762
aI2224
aI2313
aI2324
aI2504
aI2604
aI2918
aI2937
aI3000
aI3203
aa(lp331
I45
aI263
aI360
aI529
aI644
aI805
aI825
aI1084
aI1472
aI1498
aI1581
aI1615
aI1741
aI1750
aI1932
aI2228
aI2313
aI2596
aI2729
aI2730
aI2918
aI3235
aI3260
aI3309
aI3339
aI3421
aI3585
aI3656
aI3673
aa(lp332
I178
aI360
aI391
aI398
aI529
aI674
aI745
aI805
aI1165
aI1313
aI1550
aI1622
aI1652
aI1676
aI1750
aI1762
aI1774
aI1890
aI1940
aI2228
aI2310
aI2324
aI2379
aI2474
aI2596
aI2729
aI2918
aI3203
aI3212
aa(lp333
I8
aI18
aI263
aI274
aI529
aI659
aI697
aI1197
aI1256
aI1260
aI1381
aI1498
aI1558
aI1576
aI1709
aI1777
aI1898
aI1932
aI2188
aI2207
aI2313
aI2400
aI2420
aI2645
aI2837
aI2848
aI2918
aI2981
aI3280
aa(lp334
I178
aI391
aI398
aI529
aI595
aI659
aI745
aI878
aI1127
aI1225
aI1381
aI1550
aI1558
aI1576
aI1652
aI1676
aI1706
aI1762
aI2305
aI2324
aI2381
aI2420
aI2645
aI2852
aI2918
aI3113
aI3203
aI3261
aI3532
aa(lp335
I76
aI82
aI125
aI155
aI263
aI432
aI453
aI529
aI863
aI1027
aI1166
aI1498
aI1527
aI1595
aI1643
aI1806
aI1923
aI1932
aI2179
aI2313
aI2453
aI2520
aI2559
aI2703
aI2817
aI2885
aI2918
aI3226
aI3581
aa(lp336
I23
aI45
aI312
aI351
aI452
aI529
aI881
aI1339
aI1472
aI1498
aI1520
aI1586
aI1708
aI1741
aI1935
aI2013
aI2070
aI2220
aI2248
aI2268
aI2313
aI2730
aI2903
aI2918
aI3340
aI3457
aI3476
aI3528
aI3634
aa(lp337
I45
aI108
aI244
aI348
aI421
aI529
aI674
aI725
aI803
aI825
aI918
aI1116
aI1150
aI1472
aI1498
aI1921
aI1973
aI2055
aI2294
aI2313
aI2464
aI2469
aI2585
aI2715
aI2730
aI2918
aI3116
aI3594
aI3655
aa(lp338
I37
aI45
aI75
aI96
aI294
aI351
aI452
aI529
aI803
aI1116
aI1708
aI1774
aI1935
aI2055
aI2214
aI2248
aI2310
aI2412
aI2464
aI2585
aI2590
aI2730
aI2918
aI3280
aI3374
aI3457
aI3476
aI3634
aI3655
aa(lp339
I14
aI95
aI238
aI244
aI529
aI954
aI1040
aI1150
aI1432
aI1498
aI1526
aI1557
aI1675
aI1778
aI1955
aI1961
aI2064
aI2188
aI2285
aI2313
aI2495
aI2602
aI2918
aI2981
aI3104
aI3137
aI3280
aI3344
aI3574
aa(lp340
I45
aI76
aI238
aI351
aI452
aI485
aI529
aI861
aI876
aI954
aI1225
aI1432
aI1708
aI1935
aI1955
aI2064
aI2248
aI2314
aI2472
aI2537
aI2602
aI2730
aI2907
aI2918
aI3113
aI3240
aI3457
aI3476
aI3634
aa(lp341
I137
aI244
aI529
aI907
aI965
aI1150
aI1498
aI1625
aI1643
aI2009
aI2179
aI2373
aI2545
aI2882
aI3122
aI3215
aI3511
aa(lp342
I45
aI351
aI452
aI529
aI1155
aI1524
aI1708
aI1935
aI2009
aI2248
aI2373
aI2730
aI2986
aI3408
aI3457
aI3476
aI3634
aa(lp343
I119
aI155
aI263
aI529
aI863
aI1166
aI1527
aI1643
aI1932
aI1982
aI2009
aI2179
aI2373
aI2453
aI2703
aI2887
aI3486
aa(lp344
I178
aI391
aI398
aI529
aI745
aI1550
aI1652
aI1676
aI1762
aI1981
aI2009
aI2324
aI2373
aI2393
aI2928
aI3203
aI3442
aa(lp345
I181
aI529
aI908
aI972
aI1048
aI1139
aI1795
aI2009
aI2201
aI2232
aI2303
aI2373
aI2825
aI3217
aI3435
aI3547
aI3595
aa(lp346
I205
aI235
aI529
aI682
aI705
aI754
aI1372
aI1404
aI1509
aI1514
aI2009
aI2076
aI2236
aI2373
aI2768
aI3195
aI3540
aatbsS'format'
p347
S'lil'
p348
sS'dtype'
p349
g6
(S'f8'
I0
I1
tRp350
(I3
S'<'
NNNI-1
I-1
I0
tbsS'_shape'
p351
(I329
I3744
tp352
sS'maxprint'
p353
I50
sS'data'
p354
g3
(g4
(I0
tS'b'
tRp355
(I1
(I329
tg16
I00
(lp356
(lp357
F1
aF1
aF1
aF1
aF1
aF1
aF1
aa(lp358
F1
aF1
aF1
aF1
aF1
aF1
aF1
aF1
aF1
aF1
aF1
aF1
aF1
aF1
aF1
aF1
aa(lp359
F1
aF1
aF1
aF1
aF1
aF1
aF1
aF1
aF1
aF1
aF1
aF1
aF1
aF1
aF1
aF1
aF1
aF1
aF1
aF1
aF1
aF1
aF1
aF1
aF1
aF1
aF1
aF1
aF1
aa(lp360
F1
aF1
aF1
aF1
aF1
aF1
aF1
aF1
aF1
aF1
aF1
aF1
aF1
aF1
aF1
aF1
aF1
aa(lp361
F1
aF1
aF1
aF1
aF1
aF1
aF1
aF1
aF1
aF1
aF1
aF1
aF1
aF1
aF1
aF1
aF1
aa(lp362
F1
aF1
aF1
aF1
aF1
aF1
aF1
aa(lp363
F1
aF1
aF1
aF1
aF1
aF1
aF1
aF1
aF1
aF1
aF1
aF1
aF1
aF1
aF1
aF1
aa(lp364
F1
aF1
aF1
aF1
aF1
aF1
aF1
aF1
aF1
aF1
aF1
aF1
aF1
aF1
aF1
aF1
aF1
aF1
aF1
aF1
aF1
aF1
aF1
aF1
aF1
aF1
aF1
aF1
aF1
aa(lp365
F1
aF1
aF1
aF1
aF1
aF1
aF1
aF1
aF1
aF1
aF1
aF1
aF1
aF1
aF1
aF1
aa(lp366
F1
aF1
aF1
aF1
aF1
aF1
aF1
aF1
aF1
aF1
aF1
aF1
aF1
aF1
aF1
aF1
aF1
aF1
aF1
aF1
aF1
aF1
aF1
aF1
aF1
aF1
aF1
aF1
aF1
aa(lp367
F1
aF1
aF1
aF1
aF1
aF1
aF1
aF1
aF1
aF1
aF1
aF1
aF1
aF1
aF1
aF1
aF1
aF1
aF1
aF1
aF1
aF1
aF1
aF1
aF1
aF1
aF1
aF1
aF1
aa(lp368
F1
aF1
aF1
aF1
aF1
aF1
aF1
aF1
aF1
aF1
aF1
aF1
aF1
aF1
aF1
aF1
aF1
aF1
aF1
aF1
aF1
aF1
aF1
aF1
aF1
aF1
aF1
aF1
aF1
aa(lp369
F1
aF1
aF1
aF1
aF1
aF1
aF1
aF1
aF1
aF1
aF1
aF1
aF1
aF1
aF1
aF1
aa(lp370
F1
aF1
aF1
aF1
aF1
aF1
aF1
aF1
aF1
aF1
aF1
aF1
aF1
aF1
aF1
aF1
aF1
aF1
aF1
aF1
aF1
aF1
aF1
aF1
aF1
aF1
aF1
aF1
aF1
aa(lp371
F1
aF1
aF1
aF1
aF1
aF1
aF1
aF1
aF1
aF1
aF1
aF1
aF1
aF1
aF1
aF1
aa(lp372
F1
aF1
aF1
aF1
aF1
aF1
aF1
aF1
aF1
aF1
aF1
aF1
aF1
aF1
aF1
aF1
aF1
aF1
aF1
aF1
aF1
aF1
aF1
aF1
aF1
aF1
aF1
aF1
aF1
aa(lp373
F1
aF1
aF1
aF1
aF1
aF1
aF1
aF1
aF1
aF1
aF1
aF1
aF1
aF1
aF1
aF1
aF1
aa(lp374
F1
aF1
aF1
aF1
aF1
aF1
aF1
aF1
aF1
aF1
aF1
aF1
aF1
aF1
aF1
aF1
aF1
aa(lp375
F1
aF1
aF1
aF1
aF1
aF1
aF1
aa(lp376
F1
aF1
aF1
aF1
aF1
aF1
aF1
aF1
aF1
aF1
aF1
aF1
aF1
aF1
aF1
aF1
aa(lp377
F1
aF1
aF1
aF1
aF1
aF1
aF1
aF1
aF1
aF1
aF1
aF1
aF1
aF1
aF1
aF1
aF1
aF1
aF1
aF1
aF1
aF1
aF1
aF1
aF1
aF1
aF1
aF1
aF1
aa(lp378
F1
aF1
aF1
aF1
aF1
aF1
aF1
aF1
aF1
aF1
aF1
aF1
aF1
aF1
aF1
aF1
aF1
aF1
aF1
aF1
aF1
aF1
aF1
aF1
aF1
aF1
aF1
aF1
aF1
aa(lp379
F1
aF1
aF1
aF1
aF1
aF1
aF1
aF1
aF1
aF1
aF1
aF1
aF1
aF1
aF1
aF1
aF1
aF1
aF1
aF1
aF1
aF1
aF1
aF1
aF1
aF1
aF1
aF1
aF1
aa(lp380
F1
aF1
aF1
aF1
aF1
aF1
aF1
aF1
aF1
aF1
aF1
aF1
aF1
aF1
aF1
aF1
aF1
aF1
aF1
aF1
aF1
aF1
aF1
aF1
aF1
aF1
aF1
aF1
aF1
aa(lp381
F1
aF1
aF1
aF1
aF1
aF1
aF1
aF1
aF1
aF1
aF1
aF1
aF1
aF1
aF1
aF1
aF1
aF1
aF1
aF1
aF1
aF1
aF1
aF1
aF1
aF1
aF1
aF1
aF1
aa(lp382
F1
aF1
aF1
aF1
aF1
aF1
aF1
aF1
aF1
aF1
aF1
aF1
aF1
aF1
aF1
aF1
aF1
aF1
aF1
aF1
aF1
aF1
aF1
aF1
aF1
aF1
aF1
aF1
aF1
aa(lp383
F1
aF1
aF1
aF1
aF1
aF1
aF1
aF1
aF1
aF1
aF1
aF1
aF1
aF1
aF1
aF1
aF1
aF1
aF1
aF1
aF1
aF1
aF1
aF1
aF1
aF1
aF1
aF1
aF1
aa(lp384
F1
aF1
aF1
aF1
aF1
aF1
aF1
aF1
aF1
aF1
aF1
aF1
aF1
aF1
aF1
aF1
aF1
aF1
aF1
aF1
aF1
aF1
aF1
aF1
aF1
aF1
aF1
aF1
aF1
aa(lp385
F1
aF1
aF1
aF1
aF1
aF1
aF1
aF1
aF1
aF1
aF1
aF1
aF1
aF1
aF1
aF1
aF1
aF1
aF1
aF1
aF1
aF1
aF1
aF1
aF1
aF1
aF1
aF1
aF1
aa(lp386
F1
aF1
aF1
aF1
aF1
aF1
aF1
aF1
aF1
aF1
aF1
aF1
aF1
aF1
aF1
aF1
aF1
aF1
aF1
aF1
aF1
aF1
aF1
aF1
aF1
aF1
aF1
aF1
aF1
aa(lp387
F1
aF1
aF1
aF1
aF1
aF1
aF1
aF1
aF1
aF1
aF1
aF1
aF1
aF1
aF1
aF1
aF1
aF1
aF1
aF1
aF1
aF1
aF1
aF1
aF1
aF1
aF1
aF1
aF1
aa(lp388
F1
aF1
aF1
aF1
aF1
aF1
aF1
aF1
aF1
aF1
aF1
aF1
aF1
aF1
aF1
aF1
aF1
aF1
aF1
aF1
aF1
aF1
aF1
aF1
aF1
aF1
aF1
aF1
aF1
aa(lp389
F1
aF1
aF1
aF1
aF1
aF1
aF1
aF1
aF1
aF1
aF1
aF1
aF1
aF1
aF1
aF1
aF1
aF1
aF1
aF1
aF1
aF1
aF1
aF1
aF1
aF1
aF1
aF1
aF1
aa(lp390
F1
aF1
aF1
aF1
aF1
aF1
aF1
aF1
aF1
aF1
aF1
aF1
aF1
aF1
aF1
aF1
aF1
aF1
aF1
aF1
aF1
aF1
aF1
aF1
aF1
aF1
aF1
aF1
aF1
aa(lp391
F1
aF1
aF1
aF1
aF1
aF1
aF1
aF1
aF1
aF1
aF1
aF1
aF1
aF1
aF1
aF1
aF1
aF1
aF1
aF1
aF1
aF1
aF1
aF1
aF1
aF1
aF1
aF1
aF1
aa(lp392
F1
aF1
aF1
aF1
aF1
aF1
aF1
aF1
aF1
aF1
aF1
aF1
aF1
aF1
aF1
aF1
aF1
aF1
aF1
aF1
aF1
aF1
aF1
aF1
aF1
aF1
aF1
aF1
aF1
aa(lp393
F1
aF1
aF1
aF1
aF1
aF1
aF1
aF1
aF1
aF1
aF1
aF1
aF1
aF1
aF1
aF1
aF1
aF1
aF1
aF1
aF1
aF1
aF1
aF1
aF1
aF1
aF1
aF1
aF1
aa(lp394
F1
aF1
aF1
aF1
aF1
aF1
aF1
aF1
aF1
aF1
aF1
aF1
aF1
aF1
aF1
aF1
aF1
aF1
aF1
aF1
aF1
aF1
aF1
aF1
aF1
aF1
aF1
aF1
aF1
aa(lp395
F1
aF1
aF1
aF1
aF1
aF1
aF1
aF1
aF1
aF1
aF1
aF1
aF1
aF1
aF1
aF1
aF1
aF1
aF1
aF1
aF1
aF1
aF1
aF1
aF1
aF1
aF1
aF1
aF1
aa(lp396
F1
aF1
aF1
aF1
aF1
aF1
aF1
aF1
aF1
aF1
aF1
aF1
aF1
aF1
aF1
aF1
aF1
aF1
aF1
aF1
aF1
aF1
aF1
aF1
aF1
aF1
aF1
aF1
aF1
aa(lp397
F1
aF1
aF1
aF1
aF1
aF1
aF1
aF1
aF1
aF1
aF1
aF1
aF1
aF1
aF1
aF1
aF1
aF1
aF1
aF1
aF1
aF1
aF1
aF1
aF1
aF1
aF1
aF1
aF1
aa(lp398
F1
aF1
aF1
aF1
aF1
aF1
aF1
aF1
aF1
aF1
aF1
aF1
aF1
aF1
aF1
aF1
aF1
aF1
aF1
aF1
aF1
aF1
aF1
aF1
aF1
aF1
aF1
aF1
aF1
aa(lp399
F1
aF1
aF1
aF1
aF1
aF1
aF1
aF1
aF1
aF1
aF1
aF1
aF1
aF1
aF1
aF1
aF1
aF1
aF1
aF1
aF1
aF1
aF1
aF1
aF1
aF1
aF1
aF1
aF1
aa(lp400
F1
aF1
aF1
aF1
aF1
aF1
aF1
aF1
aF1
aF1
aF1
aF1
aF1
aF1
aF1
aF1
aF1
aF1
aF1
aF1
aF1
aF1
aF1
aF1
aF1
aF1
aF1
aF1
aF1
aa(lp401
F1
aF1
aF1
aF1
aF1
aF1
aF1
aF1
aF1
aF1
aF1
aF1
aF1
aF1
aF1
aF1
aF1
aF1
aF1
aF1
aF1
aF1
aF1
aF1
aF1
aF1
aF1
aF1
aF1
aa(lp402
F1
aF1
aF1
aF1
aF1
aF1
aF1
aF1
aF1
aF1
aF1
aF1
aF1
aF1
aF1
aF1
aF1
aF1
aF1
aF1
aF1
aF1
aF1
aF1
aF1
aF1
aF1
aF1
aF1
aa(lp403
F1
aF1
aF1
aF1
aF1
aF1
aF1
aF1
aF1
aF1
aF1
aF1
aF1
aF1
aF1
aF1
aF1
aF1
aF1
aF1
aF1
aF1
aF1
aF1
aF1
aF1
aF1
aF1
aF1
aa(lp404
F1
aF1
aF1
aF1
aF1
aF1
aF1
aF1
aF1
aF1
aF1
aF1
aF1
aF1
aF1
aF1
aF1
aF1
aF1
aF1
aF1
aF1
aF1
aF1
aF1
aF1
aF1
aF1
aF1
aa(lp405
F1
aF1
aF1
aF1
aF1
aF1
aF1
aF1
aF1
aF1
aF1
aF1
aF1
aF1
aF1
aF1
aF1
aF1
aF1
aF1
aF1
aF1
aF1
aF1
aF1
aF1
aF1
aF1
aF1
aa(lp406
F1
aF1
aF1
aF1
aF1
aF1
aF1
aF1
aF1
aF1
aF1
aF1
aF1
aF1
aF1
aF1
aF1
aF1
aF1
aF1
aF1
aF1
aF1
aF1
aF1
aF1
aF1
aF1
aF1
aa(lp407
F1
aF1
aF1
aF1
aF1
aF1
aF1
aF1
aF1
aF1
aF1
aF1
aF1
aF1
aF1
aF1
aF1
aF1
aF1
aF1
aF1
aF1
aF1
aF1
aF1
aF1
aF1
aF1
aF1
aa(lp408
F1
aF1
aF1
aF1
aF1
aF1
aF1
aF1
aF1
aF1
aF1
aF1
aF1
aF1
aF1
aF1
aF1
aF1
aF1
aF1
aF1
aF1
aF1
aF1
aF1
aF1
aF1
aF1
aF1
aa(lp409
F1
aF1
aF1
aF1
aF1
aF1
aF1
aF1
aF1
aF1
aF1
aF1
aF1
aF1
aF1
aF1
aF1
aF1
aF1
aF1
aF1
aF1
aF1
aF1
aF1
aF1
aF1
aF1
aF1
aa(lp410
F1
aF1
aF1
aF1
aF1
aF1
aF1
aF1
aF1
aF1
aF1
aF1
aF1
aF1
aF1
aF1
aF1
aF1
aF1
aF1
aF1
aF1
aF1
aF1
aF1
aF1
aF1
aF1
aF1
aa(lp411
F1
aF1
aF1
aF1
aF1
aF1
aF1
aF1
aF1
aF1
aF1
aF1
aF1
aF1
aF1
aF1
aF1
aF1
aF1
aF1
aF1
aF1
aF1
aF1
aF1
aF1
aF1
aF1
aF1
aa(lp412
F1
aF1
aF1
aF1
aF1
aF1
aF1
aF1
aF1
aF1
aF1
aF1
aF1
aF1
aF1
aF1
aF1
aF1
aF1
aF1
aF1
aF1
aF1
aF1
aF1
aF1
aF1
aF1
aF1
aa(lp413
F1
aF1
aF1
aF1
aF1
aF1
aF1
aF1
aF1
aF1
aF1
aF1
aF1
aF1
aF1
aF1
aF1
aF1
aF1
aF1
aF1
aF1
aF1
aF1
aF1
aF1
aF1
aF1
aF1
aa(lp414
F1
aF1
aF1
aF1
aF1
aF1
aF1
aF1
aF1
aF1
aF1
aF1
aF1
aF1
aF1
aF1
aF1
aF1
aF1
aF1
aF1
aF1
aF1
aF1
aF1
aF1
aF1
aF1
aF1
aa(lp415
F1
aF1
aF1
aF1
aF1
aF1
aF1
aF1
aF1
aF1
aF1
aF1
aF1
aF1
aF1
aF1
aF1
aF1
aF1
aF1
aF1
aF1
aF1
aF1
aF1
aF1
aF1
aF1
aF1
aa(lp416
F1
aF1
aF1
aF1
aF1
aF1
aF1
aF1
aF1
aF1
aF1
aF1
aF1
aF1
aF1
aF1
aa(lp417
F1
aF1
aF1
aF1
aF1
aF1
aF1
aF1
aF1
aF1
aF1
aF1
aF1
aF1
aF1
aF1
aF1
aF1
aF1
aF1
aF1
aF1
aF1
aF1
aF1
aF1
aF1
aF1
aF1
aa(lp418
F1
aF1
aF1
aF1
aF1
aF1
aF1
aF1
aF1
aF1
aF1
aF1
aF1
aF1
aF1
aF1
aF1
aF1
aF1
aF1
aF1
aF1
aF1
aF1
aF1
aF1
aF1
aF1
aF1
aa(lp419
F1
aF1
aF1
aF1
aF1
aF1
aF1
aF1
aF1
aF1
aF1
aF1
aF1
aF1
aF1
aF1
aF1
aF1
aF1
aF1
aF1
aF1
aF1
aF1
aF1
aF1
aF1
aF1
aF1
aa(lp420
F1
aF1
aF1
aF1
aF1
aF1
aF1
aF1
aF1
aF1
aF1
aF1
aF1
aF1
aF1
aF1
aF1
aF1
aF1
aF1
aF1
aF1
aF1
aF1
aF1
aF1
aF1
aF1
aF1
aa(lp421
F1
aF1
aF1
aF1
aF1
aF1
aF1
aF1
aF1
aF1
aF1
aF1
aF1
aF1
aF1
aF1
aF1
aF1
aF1
aF1
aF1
aF1
aF1
aF1
aF1
aF1
aF1
aF1
aF1
aa(lp422
F1
aF1
aF1
aF1
aF1
aF1
aF1
aF1
aF1
aF1
aF1
aF1
aF1
aF1
aF1
aF1
aF1
aF1
aF1
aF1
aF1
aF1
aF1
aF1
aF1
aF1
aF1
aF1
aF1
aa(lp423
F1
aF1
aF1
aF1
aF1
aF1
aF1
aF1
aF1
aF1
aF1
aF1
aF1
aF1
aF1
aF1
aF1
aF1
aF1
aF1
aF1
aF1
aF1
aF1
aF1
aF1
aF1
aF1
aF1
aa(lp424
F1
aF1
aF1
aF1
aF1
aF1
aF1
aF1
aF1
aF1
aF1
aF1
aF1
aF1
aF1
aF1
aF1
aF1
aF1
aF1
aF1
aF1
aF1
aF1
aF1
aF1
aF1
aF1
aF1
aa(lp425
F1
aF1
aF1
aF1
aF1
aF1
aF1
aF1
aF1
aF1
aF1
aF1
aF1
aF1
aF1
aF1
aF1
aF1
aF1
aF1
aF1
aF1
aF1
aF1
aF1
aF1
aF1
aF1
aF1
aa(lp426
F1
aF1
aF1
aF1
aF1
aF1
aF1
aF1
aF1
aF1
aF1
aF1
aF1
aF1
aF1
aF1
aF1
aF1
aF1
aF1
aF1
aF1
aF1
aF1
aF1
aF1
aF1
aF1
aF1
aa(lp427
F1
aF1
aF1
aF1
aF1
aF1
aF1
aF1
aF1
aF1
aF1
aF1
aF1
aF1
aF1
aF1
aF1
aF1
aF1
aF1
aF1
aF1
aF1
aF1
aF1
aF1
aF1
aF1
aF1
aa(lp428
F1
aF1
aF1
aF1
aF1
aF1
aF1
aF1
aF1
aF1
aF1
aF1
aF1
aF1
aF1
aF1
aF1
aF1
aF1
aF1
aF1
aF1
aF1
aF1
aF1
aF1
aF1
aF1
aF1
aa(lp429
F1
aF1
aF1
aF1
aF1
aF1
aF1
aF1
aF1
aF1
aF1
aF1
aF1
aF1
aF1
aF1
aF1
aF1
aF1
aF1
aF1
aF1
aF1
aF1
aF1
aF1
aF1
aF1
aF1
aa(lp430
F1
aF1
aF1
aF1
aF1
aF1
aF1
aF1
aF1
aF1
aF1
aF1
aF1
aF1
aF1
aF1
aF1
aF1
aF1
aF1
aF1
aF1
aF1
aF1
aF1
aF1
aF1
aF1
aF1
aa(lp431
F1
aF1
aF1
aF1
aF1
aF1
aF1
aF1
aF1
aF1
aF1
aF1
aF1
aF1
aF1
aF1
aF1
aF1
aF1
aF1
aF1
aF1
aF1
aF1
aF1
aF1
aF1
aF1
aF1
aa(lp432
F1
aF1
aF1
aF1
aF1
aF1
aF1
aF1
aF1
aF1
aF1
aF1
aF1
aF1
aF1
aF1
aF1
aF1
aF1
aF1
aF1
aF1
aF1
aF1
aF1
aF1
aF1
aF1
aF1
aa(lp433
F1
aF1
aF1
aF1
aF1
aF1
aF1
aF1
aF1
aF1
aF1
aF1
aF1
aF1
aF1
aF1
aF1
aF1
aF1
aF1
aF1
aF1
aF1
aF1
aF1
aF1
aF1
aF1
aF1
aa(lp434
F1
aF1
aF1
aF1
aF1
aF1
aF1
aF1
aF1
aF1
aF1
aF1
aF1
aF1
aF1
aF1
aF1
aF1
aF1
aF1
aF1
aF1
aF1
aF1
aF1
aF1
aF1
aF1
aF1
aa(lp435
F1
aF1
aF1
aF1
aF1
aF1
aF1
aF1
aF1
aF1
aF1
aF1
aF1
aF1
aF1
aF1
aF1
aF1
aF1
aF1
aF1
aF1
aF1
aF1
aF1
aF1
aF1
aF1
aF1
aa(lp436
F1
aF1
aF1
aF1
aF1
aF1
aF1
aF1
aF1
aF1
aF1
aF1
aF1
aF1
aF1
aF1
aF1
aF1
aF1
aF1
aF1
aF1
aF1
aF1
aF1
aF1
aF1
aF1
aF1
aa(lp437
F1
aF1
aF1
aF1
aF1
aF1
aF1
aF1
aF1
aF1
aF1
aF1
aF1
aF1
aF1
aF1
aF1
aF1
aF1
aF1
aF1
aF1
aF1
aF1
aF1
aF1
aF1
aF1
aF1
aa(lp438
F1
aF1
aF1
aF1
aF1
aF1
aF1
aF1
aF1
aF1
aF1
aF1
aF1
aF1
aF1
aF1
aF1
aF1
aF1
aF1
aF1
aF1
aF1
aF1
aF1
aF1
aF1
aF1
aF1
aa(lp439
F1
aF1
aF1
aF1
aF1
aF1
aF1
aF1
aF1
aF1
aF1
aF1
aF1
aF1
aF1
aF1
aF1
aF1
aF1
aF1
aF1
aF1
aF1
aF1
aF1
aF1
aF1
aF1
aF1
aa(lp440
F1
aF1
aF1
aF1
aF1
aF1
aF1
aF1
aF1
aF1
aF1
aF1
aF1
aF1
aF1
aF1
aF1
aF1
aF1
aF1
aF1
aF1
aF1
aF1
aF1
aF1
aF1
aF1
aF1
aa(lp441
F1
aF1
aF1
aF1
aF1
aF1
aF1
aF1
aF1
aF1
aF1
aF1
aF1
aF1
aF1
aF1
aF1
aF1
aF1
aF1
aF1
aF1
aF1
aF1
aF1
aF1
aF1
aF1
aF1
aa(lp442
F1
aF1
aF1
aF1
aF1
aF1
aF1
aF1
aF1
aF1
aF1
aF1
aF1
aF1
aF1
aF1
aF1
aF1
aF1
aF1
aF1
aF1
aF1
aF1
aF1
aF1
aF1
aF1
aF1
aa(lp443
F1
aF1
aF1
aF1
aF1
aF1
aF1
aF1
aF1
aF1
aF1
aF1
aF1
aF1
aF1
aF1
aF1
aF1
aF1
aF1
aF1
aF1
aF1
aF1
aF1
aF1
aF1
aF1
aF1
aa(lp444
F1
aF1
aF1
aF1
aF1
aF1
aF1
aF1
aF1
aF1
aF1
aF1
aF1
aF1
aF1
aF1
aF1
aF1
aF1
aF1
aF1
aF1
aF1
aF1
aF1
aF1
aF1
aF1
aF1
aa(lp445
F1
aF1
aF1
aF1
aF1
aF1
aF1
aF1
aF1
aF1
aF1
aF1
aF1
aF1
aF1
aF1
aF1
aF1
aF1
aF1
aF1
aF1
aF1
aF1
aF1
aF1
aF1
aF1
aF1
aa(lp446
F1
aF1
aF1
aF1
aF1
aF1
aF1
aF1
aF1
aF1
aF1
aF1
aF1
aF1
aF1
aF1
aF1
aF1
aF1
aF1
aF1
aF1
aF1
aF1
aF1
aF1
aF1
aF1
aF1
aa(lp447
F1
aF1
aF1
aF1
aF1
aF1
aF1
aF1
aF1
aF1
aF1
aF1
aF1
aF1
aF1
aF1
aF1
aF1
aF1
aF1
aF1
aF1
aF1
aF1
aF1
aF1
aF1
aF1
aF1
aa(lp448
F1
aF1
aF1
aF1
aF1
aF1
aF1
aF1
aF1
aF1
aF1
aF1
aF1
aF1
aF1
aF1
aF1
aF1
aF1
aF1
aF1
aF1
aF1
aF1
aF1
aF1
aF1
aF1
aF1
aa(lp449
F1
aF1
aF1
aF1
aF1
aF1
aF1
aF1
aF1
aF1
aF1
aF1
aF1
aF1
aF1
aF1
aF1
aF1
aF1
aF1
aF1
aF1
aF1
aF1
aF1
aF1
aF1
aF1
aF1
aa(lp450
F1
aF1
aF1
aF1
aF1
aF1
aF1
aF1
aF1
aF1
aF1
aF1
aF1
aF1
aF1
aF1
aF1
aF1
aF1
aF1
aF1
aF1
aF1
aF1
aF1
aF1
aF1
aF1
aF1
aa(lp451
F1
aF1
aF1
aF1
aF1
aF1
aF1
aF1
aF1
aF1
aF1
aF1
aF1
aF1
aF1
aF1
aF1
aF1
aF1
aF1
aF1
aF1
aF1
aF1
aF1
aF1
aF1
aF1
aF1
aa(lp452
F1
aF1
aF1
aF1
aF1
aF1
aF1
aF1
aF1
aF1
aF1
aF1
aF1
aF1
aF1
aF1
aF1
aF1
aF1
aF1
aF1
aF1
aF1
aF1
aF1
aF1
aF1
aF1
aF1
aa(lp453
F1
aF1
aF1
aF1
aF1
aF1
aF1
aF1
aF1
aF1
aF1
aF1
aF1
aF1
aF1
aF1
aF1
aF1
aF1
aF1
aF1
aF1
aF1
aF1
aF1
aF1
aF1
aF1
aF1
aa(lp454
F1
aF1
aF1
aF1
aF1
aF1
aF1
aF1
aF1
aF1
aF1
aF1
aF1
aF1
aF1
aF1
aa(lp455
F1
aF1
aF1
aF1
aF1
aF1
aF1
aF1
aF1
aF1
aF1
aF1
aF1
aF1
aF1
aF1
aF1
aF1
aF1
aF1
aF1
aF1
aF1
aF1
aF1
aF1
aF1
aF1
aF1
aa(lp456
F1
aF1
aF1
aF1
aF1
aF1
aF1
aF1
aF1
aF1
aF1
aF1
aF1
aF1
aF1
aF1
aF1
aF1
aF1
aF1
aF1
aF1
aF1
aF1
aF1
aF1
aF1
aF1
aF1
aa(lp457
F1
aF1
aF1
aF1
aF1
aF1
aF1
aF1
aF1
aF1
aF1
aF1
aF1
aF1
aF1
aF1
aF1
aF1
aF1
aF1
aF1
aF1
aF1
aF1
aF1
aF1
aF1
aF1
aF1
aa(lp458
F1
aF1
aF1
aF1
aF1
aF1
aF1
aF1
aF1
aF1
aF1
aF1
aF1
aF1
aF1
aF1
aF1
aF1
aF1
aF1
aF1
aF1
aF1
aF1
aF1
aF1
aF1
aF1
aF1
aa(lp459
F1
aF1
aF1
aF1
aF1
aF1
aF1
aF1
aF1
aF1
aF1
aF1
aF1
aF1
aF1
aF1
aF1
aF1
aF1
aF1
aF1
aF1
aF1
aF1
aF1
aF1
aF1
aF1
aF1
aa(lp460
F1
aF1
aF1
aF1
aF1
aF1
aF1
aF1
aF1
aF1
aF1
aF1
aF1
aF1
aF1
aF1
aF1
aF1
aF1
aF1
aF1
aF1
aF1
aF1
aF1
aF1
aF1
aF1
aF1
aa(lp461
F1
aF1
aF1
aF1
aF1
aF1
aF1
aF1
aF1
aF1
aF1
aF1
aF1
aF1
aF1
aF1
aF1
aF1
aF1
aF1
aF1
aF1
aF1
aF1
aF1
aF1
aF1
aF1
aF1
aa(lp462
F1
aF1
aF1
aF1
aF1
aF1
aF1
aF1
aF1
aF1
aF1
aF1
aF1
aF1
aF1
aF1
aF1
aF1
aF1
aF1
aF1
aF1
aF1
aF1
aF1
aF1
aF1
aF1
aF1
aa(lp463
F1
aF1
aF1
aF1
aF1
aF1
aF1
aF1
aF1
aF1
aF1
aF1
aF1
aF1
aF1
aF1
aF1
aF1
aF1
aF1
aF1
aF1
aF1
aF1
aF1
aF1
aF1
aF1
aF1
aa(lp464
F1
aF1
aF1
aF1
aF1
aF1
aF1
aF1
aF1
aF1
aF1
aF1
aF1
aF1
aF1
aF1
aF1
aF1
aF1
aF1
aF1
aF1
aF1
aF1
aF1
aF1
aF1
aF1
aF1
aa(lp465
F1
aF1
aF1
aF1
aF1
aF1
aF1
aF1
aF1
aF1
aF1
aF1
aF1
aF1
aF1
aF1
aF1
aF1
aF1
aF1
aF1
aF1
aF1
aF1
aF1
aF1
aF1
aF1
aF1
aa(lp466
F1
aF1
aF1
aF1
aF1
aF1
aF1
aF1
aF1
aF1
aF1
aF1
aF1
aF1
aF1
aF1
aF1
aF1
aF1
aF1
aF1
aF1
aF1
aF1
aF1
aF1
aF1
aF1
aF1
aa(lp467
F1
aF1
aF1
aF1
aF1
aF1
aF1
aF1
aF1
aF1
aF1
aF1
aF1
aF1
aF1
aF1
aF1
aF1
aF1
aF1
aF1
aF1
aF1
aF1
aF1
aF1
aF1
aF1
aF1
aa(lp468
F1
aF1
aF1
aF1
aF1
aF1
aF1
aF1
aF1
aF1
aF1
aF1
aF1
aF1
aF1
aF1
aF1
aF1
aF1
aF1
aF1
aF1
aF1
aF1
aF1
aF1
aF1
aF1
aF1
aa(lp469
F1
aF1
aF1
aF1
aF1
aF1
aF1
aF1
aF1
aF1
aF1
aF1
aF1
aF1
aF1
aF1
aF1
aF1
aF1
aF1
aF1
aF1
aF1
aF1
aF1
aF1
aF1
aF1
aF1
aa(lp470
F1
aF1
aF1
aF1
aF1
aF1
aF1
aF1
aF1
aF1
aF1
aF1
aF1
aF1
aF1
aF1
aF1
aF1
aF1
aF1
aF1
aF1
aF1
aF1
aF1
aF1
aF1
aF1
aF1
aa(lp471
F1
aF1
aF1
aF1
aF1
aF1
aF1
aF1
aF1
aF1
aF1
aF1
aF1
aF1
aF1
aF1
aF1
aF1
aF1
aF1
aF1
aF1
aF1
aF1
aF1
aF1
aF1
aF1
aF1
aa(lp472
F1
aF1
aF1
aF1
aF1
aF1
aF1
aF1
aF1
aF1
aF1
aF1
aF1
aF1
aF1
aF1
aF1
aF1
aF1
aF1
aF1
aF1
aF1
aF1
aF1
aF1
aF1
aF1
aF1
aa(lp473
F1
aF1
aF1
aF1
aF1
aF1
aF1
aF1
aF1
aF1
aF1
aF1
aF1
aF1
aF1
aF1
aF1
aF1
aF1
aF1
aF1
aF1
aF1
aF1
aF1
aF1
aF1
aF1
aF1
aa(lp474
F1
aF1
aF1
aF1
aF1
aF1
aF1
aF1
aF1
aF1
aF1
aF1
aF1
aF1
aF1
aF1
aF1
aF1
aF1
aF1
aF1
aF1
aF1
aF1
aF1
aF1
aF1
aF1
aF1
aa(lp475
F1
aF1
aF1
aF1
aF1
aF1
aF1
aF1
aF1
aF1
aF1
aF1
aF1
aF1
aF1
aF1
aF1
aF1
aF1
aF1
aF1
aF1
aF1
aF1
aF1
aF1
aF1
aF1
aF1
aa(lp476
F1
aF1
aF1
aF1
aF1
aF1
aF1
aF1
aF1
aF1
aF1
aF1
aF1
aF1
aF1
aF1
aF1
aF1
aF1
aF1
aF1
aF1
aF1
aF1
aF1
aF1
aF1
aF1
aF1
aa(lp477
F1
aF1
aF1
aF1
aF1
aF1
aF1
aF1
aF1
aF1
aF1
aF1
aF1
aF1
aF1
aF1
aF1
aF1
aF1
aF1
aF1
aF1
aF1
aF1
aF1
aF1
aF1
aF1
aF1
aa(lp478
F1
aF1
aF1
aF1
aF1
aF1
aF1
aF1
aF1
aF1
aF1
aF1
aF1
aF1
aF1
aF1
aF1
aF1
aF1
aF1
aF1
aF1
aF1
aF1
aF1
aF1
aF1
aF1
aF1
aa(lp479
F1
aF1
aF1
aF1
aF1
aF1
aF1
aF1
aF1
aF1
aF1
aF1
aF1
aF1
aF1
aF1
aF1
aF1
aF1
aF1
aF1
aF1
aF1
aF1
aF1
aF1
aF1
aF1
aF1
aa(lp480
F1
aF1
aF1
aF1
aF1
aF1
aF1
aF1
aF1
aF1
aF1
aF1
aF1
aF1
aF1
aF1
aF1
aF1
aF1
aF1
aF1
aF1
aF1
aF1
aF1
aF1
aF1
aF1
aF1
aa(lp481
F1
aF1
aF1
aF1
aF1
aF1
aF1
aF1
aF1
aF1
aF1
aF1
aF1
aF1
aF1
aF1
aF1
aF1
aF1
aF1
aF1
aF1
aF1
aF1
aF1
aF1
aF1
aF1
aF1
aa(lp482
F1
aF1
aF1
aF1
aF1
aF1
aF1
aF1
aF1
aF1
aF1
aF1
aF1
aF1
aF1
aF1
aF1
aF1
aF1
aF1
aF1
aF1
aF1
aF1
aF1
aF1
aF1
aF1
aF1
aa(lp483
F1
aF1
aF1
aF1
aF1
aF1
aF1
aF1
aF1
aF1
aF1
aF1
aF1
aF1
aF1
aF1
aF1
aF1
aF1
aF1
aF1
aF1
aF1
aF1
aF1
aF1
aF1
aF1
aF1
aa(lp484
F1
aF1
aF1
aF1
aF1
aF1
aF1
aF1
aF1
aF1
aF1
aF1
aF1
aF1
aF1
aF1
aF1
aF1
aF1
aF1
aF1
aF1
aF1
aF1
aF1
aF1
aF1
aF1
aF1
aa(lp485
F1
aF1
aF1
aF1
aF1
aF1
aF1
aF1
aF1
aF1
aF1
aF1
aF1
aF1
aF1
aF1
aF1
aF1
aF1
aF1
aF1
aF1
aF1
aF1
aF1
aF1
aF1
aF1
aF1
aa(lp486
F1
aF1
aF1
aF1
aF1
aF1
aF1
aF1
aF1
aF1
aF1
aF1
aF1
aF1
aF1
aF1
aF1
aF1
aF1
aF1
aF1
aF1
aF1
aF1
aF1
aF1
aF1
aF1
aF1
aa(lp487
F1
aF1
aF1
aF1
aF1
aF1
aF1
aF1
aF1
aF1
aF1
aF1
aF1
aF1
aF1
aF1
aF1
aF1
aF1
aF1
aF1
aF1
aF1
aF1
aF1
aF1
aF1
aF1
aF1
aa(lp488
F1
aF1
aF1
aF1
aF1
aF1
aF1
aF1
aF1
aF1
aF1
aF1
aF1
aF1
aF1
aF1
aF1
aF1
aF1
aF1
aF1
aF1
aF1
aF1
aF1
aF1
aF1
aF1
aF1
aa(lp489
F1
aF1
aF1
aF1
aF1
aF1
aF1
aF1
aF1
aF1
aF1
aF1
aF1
aF1
aF1
aF1
aF1
aF1
aF1
aF1
aF1
aF1
aF1
aF1
aF1
aF1
aF1
aF1
aF1
aa(lp490
F1
aF1
aF1
aF1
aF1
aF1
aF1
aF1
aF1
aF1
aF1
aF1
aF1
aF1
aF1
aF1
aF1
aF1
aF1
aF1
aF1
aF1
aF1
aF1
aF1
aF1
aF1
aF1
aF1
aa(lp491
F1
aF1
aF1
aF1
aF1
aF1
aF1
aF1
aF1
aF1
aF1
aF1
aF1
aF1
aF1
aF1
aF1
aF1
aF1
aF1
aF1
aF1
aF1
aF1
aF1
aF1
aF1
aF1
aF1
aa(lp492
F1
aF1
aF1
aF1
aF1
aF1
aF1
aF1
aF1
aF1
aF1
aF1
aF1
aF1
aF1
aF1
aF1
aF1
aF1
aF1
aF1
aF1
aF1
aF1
aF1
aF1
aF1
aF1
aF1
aa(lp493
F1
aF1
aF1
aF1
aF1
aF1
aF1
aF1
aF1
aF1
aF1
aF1
aF1
aF1
aF1
aF1
aF1
aF1
aF1
aF1
aF1
aF1
aF1
aF1
aF1
aF1
aF1
aF1
aF1
aa(lp494
F1
aF1
aF1
aF1
aF1
aF1
aF1
aF1
aF1
aF1
aF1
aF1
aF1
aF1
aF1
aF1
aF1
aF1
aF1
aF1
aF1
aF1
aF1
aF1
aF1
aF1
aF1
aF1
aF1
aa(lp495
F1
aF1
aF1
aF1
aF1
aF1
aF1
aF1
aF1
aF1
aF1
aF1
aF1
aF1
aF1
aF1
aF1
aF1
aF1
aF1
aF1
aF1
aF1
aF1
aF1
aF1
aF1
aF1
aF1
aa(lp496
F1
aF1
aF1
aF1
aF1
aF1
aF1
aF1
aF1
aF1
aF1
aF1
aF1
aF1
aF1
aF1
aF1
aF1
aF1
aF1
aF1
aF1
aF1
aF1
aF1
aF1
aF1
aF1
aF1
aa(lp497
F1
aF1
aF1
aF1
aF1
aF1
aF1
aF1
aF1
aF1
aF1
aF1
aF1
aF1
aF1
aF1
aF1
aF1
aF1
aF1
aF1
aF1
aF1
aF1
aF1
aF1
aF1
aF1
aF1
aa(lp498
F1
aF1
aF1
aF1
aF1
aF1
aF1
aF1
aF1
aF1
aF1
aF1
aF1
aF1
aF1
aF1
aF1
aF1
aF1
aF1
aF1
aF1
aF1
aF1
aF1
aF1
aF1
aF1
aF1
aa(lp499
F1
aF1
aF1
aF1
aF1
aF1
aF1
aF1
aF1
aF1
aF1
aF1
aF1
aF1
aF1
aF1
aF1
aF1
aF1
aF1
aF1
aF1
aF1
aF1
aF1
aF1
aF1
aF1
aF1
aa(lp500
F1
aF1
aF1
aF1
aF1
aF1
aF1
aF1
aF1
aF1
aF1
aF1
aF1
aF1
aF1
aF1
aF1
aF1
aF1
aF1
aF1
aF1
aF1
aF1
aF1
aF1
aF1
aF1
aF1
aa(lp501
F1
aF1
aF1
aF1
aF1
aF1
aF1
aF1
aF1
aF1
aF1
aF1
aF1
aF1
aF1
aF1
aF1
aF1
aF1
aF1
aF1
aF1
aF1
aF1
aF1
aF1
aF1
aF1
aF1
aa(lp502
F1
aF1
aF1
aF1
aF1
aF1
aF1
aF1
aF1
aF1
aF1
aF1
aF1
aF1
aF1
aF1
aF1
aF1
aF1
aF1
aF1
aF1
aF1
aF1
aF1
aF1
aF1
aF1
aF1
aa(lp503
F1
aF1
aF1
aF1
aF1
aF1
aF1
aF1
aF1
aF1
aF1
aF1
aF1
aF1
aF1
aF1
aF1
aF1
aF1
aF1
aF1
aF1
aF1
aF1
aF1
aF1
aF1
aF1
aF1
aa(lp504
F1
aF1
aF1
aF1
aF1
aF1
aF1
aF1
aF1
aF1
aF1
aF1
aF1
aF1
aF1
aF1
aF1
aF1
aF1
aF1
aF1
aF1
aF1
aF1
aF1
aF1
aF1
aF1
aF1
aa(lp505
F1
aF1
aF1
aF1
aF1
aF1
aF1
aF1
aF1
aF1
aF1
aF1
aF1
aF1
aF1
aF1
aF1
aF1
aF1
aF1
aF1
aF1
aF1
aF1
aF1
aF1
aF1
aF1
aF1
aa(lp506
F1
aF1
aF1
aF1
aF1
aF1
aF1
aF1
aF1
aF1
aF1
aF1
aF1
aF1
aF1
aF1
aF1
aF1
aF1
aF1
aF1
aF1
aF1
aF1
aF1
aF1
aF1
aF1
aF1
aa(lp507
F1
aF1
aF1
aF1
aF1
aF1
aF1
aF1
aF1
aF1
aF1
aF1
aF1
aF1
aF1
aF1
aF1
aF1
aF1
aF1
aF1
aF1
aF1
aF1
aF1
aF1
aF1
aF1
aF1
aa(lp508
F1
aF1
aF1
aF1
aF1
aF1
aF1
aF1
aF1
aF1
aF1
aF1
aF1
aF1
aF1
aF1
aF1
aF1
aF1
aF1
aF1
aF1
aF1
aF1
aF1
aF1
aF1
aF1
aF1
aa(lp509
F1
aF1
aF1
aF1
aF1
aF1
aF1
aF1
aF1
aF1
aF1
aF1
aF1
aF1
aF1
aF1
aF1
aF1
aF1
aF1
aF1
aF1
aF1
aF1
aF1
aF1
aF1
aF1
aF1
aa(lp510
F1
aF1
aF1
aF1
aF1
aF1
aF1
aF1
aF1
aF1
aF1
aF1
aF1
aF1
aF1
aF1
aF1
aF1
aF1
aF1
aF1
aF1
aF1
aF1
aF1
aF1
aF1
aF1
aF1
aa(lp511
F1
aF1
aF1
aF1
aF1
aF1
aF1
aF1
aF1
aF1
aF1
aF1
aF1
aF1
aF1
aF1
aF1
aF1
aF1
aF1
aF1
aF1
aF1
aF1
aF1
aF1
aF1
aF1
aF1
aa(lp512
F1
aF1
aF1
aF1
aF1
aF1
aF1
aF1
aF1
aF1
aF1
aF1
aF1
aF1
aF1
aF1
aF1
aF1
aF1
aF1
aF1
aF1
aF1
aF1
aF1
aF1
aF1
aF1
aF1
aa(lp513
F1
aF1
aF1
aF1
aF1
aF1
aF1
aF1
aF1
aF1
aF1
aF1
aF1
aF1
aF1
aF1
aF1
aF1
aF1
aF1
aF1
aF1
aF1
aF1
aF1
aF1
aF1
aF1
aF1
aa(lp514
F1
aF1
aF1
aF1
aF1
aF1
aF1
aF1
aF1
aF1
aF1
aF1
aF1
aF1
aF1
aF1
aF1
aF1
aF1
aF1
aF1
aF1
aF1
aF1
aF1
aF1
aF1
aF1
aF1
aa(lp515
F1
aF1
aF1
aF1
aF1
aF1
aF1
aF1
aF1
aF1
aF1
aF1
aF1
aF1
aF1
aF1
aF1
aF1
aF1
aF1
aF1
aF1
aF1
aF1
aF1
aF1
aF1
aF1
aF1
aa(lp516
F1
aF1
aF1
aF1
aF1
aF1
aF1
aF1
aF1
aF1
aF1
aF1
aF1
aF1
aF1
aF1
aF1
aF1
aF1
aF1
aF1
aF1
aF1
aF1
aF1
aF1
aF1
aF1
aF1
aa(lp517
F1
aF1
aF1
aF1
aF1
aF1
aF1
aF1
aF1
aF1
aF1
aF1
aF1
aF1
aF1
aF1
aF1
aF1
aF1
aF1
aF1
aF1
aF1
aF1
aF1
aF1
aF1
aF1
aF1
aa(lp518
F1
aF1
aF1
aF1
aF1
aF1
aF1
aF1
aF1
aF1
aF1
aF1
aF1
aF1
aF1
aF1
aF1
aF1
aF1
aF1
aF1
aF1
aF1
aF1
aF1
aF1
aF1
aF1
aF1
aa(lp519
F1
aF1
aF1
aF1
aF1
aF1
aF1
aF1
aF1
aF1
aF1
aF1
aF1
aF1
aF1
aF1
aF1
aF1
aF1
aF1
aF1
aF1
aF1
aF1
aF1
aF1
aF1
aF1
aF1
aa(lp520
F1
aF1
aF1
aF1
aF1
aF1
aF1
aF1
aF1
aF1
aF1
aF1
aF1
aF1
aF1
aF1
aF1
aF1
aF1
aF1
aF1
aF1
aF1
aF1
aF1
aF1
aF1
aF1
aF1
aa(lp521
F1
aF1
aF1
aF1
aF1
aF1
aF1
aF1
aF1
aF1
aF1
aF1
aF1
aF1
aF1
aF1
aF1
aF1
aF1
aF1
aF1
aF1
aF1
aF1
aF1
aF1
aF1
aF1
aF1
aa(lp522
F1
aF1
aF1
aF1
aF1
aF1
aF1
aF1
aF1
aF1
aF1
aF1
aF1
aF1
aF1
aF1
aF1
aF1
aF1
aF1
aF1
aF1
aF1
aF1
aF1
aF1
aF1
aF1
aF1
aa(lp523
F1
aF1
aF1
aF1
aF1
aF1
aF1
aF1
aF1
aF1
aF1
aF1
aF1
aF1
aF1
aF1
aF1
aF1
aF1
aF1
aF1
aF1
aF1
aF1
aF1
aF1
aF1
aF1
aF1
aa(lp524
F1
aF1
aF1
aF1
aF1
aF1
aF1
aF1
aF1
aF1
aF1
aF1
aF1
aF1
aF1
aF1
aF1
aF1
aF1
aF1
aF1
aF1
aF1
aF1
aF1
aF1
aF1
aF1
aF1
aa(lp525
F1
aF1
aF1
aF1
aF1
aF1
aF1
aF1
aF1
aF1
aF1
aF1
aF1
aF1
aF1
aF1
aF1
aF1
aF1
aF1
aF1
aF1
aF1
aF1
aF1
aF1
aF1
aF1
aF1
aa(lp526
F1
aF1
aF1
aF1
aF1
aF1
aF1
aF1
aF1
aF1
aF1
aF1
aF1
aF1
aF1
aF1
aF1
aF1
aF1
aF1
aF1
aF1
aF1
aF1
aF1
aF1
aF1
aF1
aF1
aa(lp527
F1
aF1
aF1
aF1
aF1
aF1
aF1
aF1
aF1
aF1
aF1
aF1
aF1
aF1
aF1
aF1
aF1
aF1
aF1
aF1
aF1
aF1
aF1
aF1
aF1
aF1
aF1
aF1
aF1
aa(lp528
F1
aF1
aF1
aF1
aF1
aF1
aF1
aF1
aF1
aF1
aF1
aF1
aF1
aF1
aF1
aF1
aF1
aF1
aF1
aF1
aF1
aF1
aF1
aF1
aF1
aF1
aF1
aF1
aF1
aa(lp529
F1
aF1
aF1
aF1
aF1
aF1
aF1
aF1
aF1
aF1
aF1
aF1
aF1
aF1
aF1
aF1
aF1
aF1
aF1
aF1
aF1
aF1
aF1
aF1
aF1
aF1
aF1
aF1
aF1
aa(lp530
F1
aF1
aF1
aF1
aF1
aF1
aF1
aF1
aF1
aF1
aF1
aF1
aF1
aF1
aF1
aF1
aF1
aF1
aF1
aF1
aF1
aF1
aF1
aF1
aF1
aF1
aF1
aF1
aF1
aa(lp531
F1
aF1
aF1
aF1
aF1
aF1
aF1
aF1
aF1
aF1
aF1
aF1
aF1
aF1
aF1
aF1
aF1
aF1
aF1
aF1
aF1
aF1
aF1
aF1
aF1
aF1
aF1
aF1
aF1
aa(lp532
F1
aF1
aF1
aF1
aF1
aF1
aF1
aF1
aF1
aF1
aF1
aF1
aF1
aF1
aF1
aF1
aF1
aF1
aF1
aF1
aF1
aF1
aF1
aF1
aF1
aF1
aF1
aF1
aF1
aa(lp533
F1
aF1
aF1
aF1
aF1
aF1
aF1
aF1
aF1
aF1
aF1
aF1
aF1
aF1
aF1
aF1
aF1
aF1
aF1
aF1
aF1
aF1
aF1
aF1
aF1
aF1
aF1
aF1
aF1
aa(lp534
F1
aF1
aF1
aF1
aF1
aF1
aF1
aF1
aF1
aF1
aF1
aF1
aF1
aF1
aF1
aF1
aF1
aF1
aF1
aF1
aF1
aF1
aF1
aF1
aF1
aF1
aF1
aF1
aF1
aa(lp535
F1
aF1
aF1
aF1
aF1
aF1
aF1
aF1
aF1
aF1
aF1
aF1
aF1
aF1
aF1
aF1
aF1
aF1
aF1
aF1
aF1
aF1
aF1
aF1
aF1
aF1
aF1
aF1
aF1
aa(lp536
F1
aF1
aF1
aF1
aF1
aF1
aF1
aF1
aF1
aF1
aF1
aF1
aF1
aF1
aF1
aF1
aF1
aF1
aF1
aF1
aF1
aF1
aF1
aF1
aF1
aF1
aF1
aF1
aF1
aa(lp537
F1
aF1
aF1
aF1
aF1
aF1
aF1
aF1
aF1
aF1
aF1
aF1
aF1
aF1
aF1
aF1
aF1
aF1
aF1
aF1
aF1
aF1
aF1
aF1
aF1
aF1
aF1
aF1
aF1
aa(lp538
F1
aF1
aF1
aF1
aF1
aF1
aF1
aF1
aF1
aF1
aF1
aF1
aF1
aF1
aF1
aF1
aF1
aF1
aF1
aF1
aF1
aF1
aF1
aF1
aF1
aF1
aF1
aF1
aF1
aa(lp539
F1
aF1
aF1
aF1
aF1
aF1
aF1
aF1
aF1
aF1
aF1
aF1
aF1
aF1
aF1
aF1
aF1
aF1
aF1
aF1
aF1
aF1
aF1
aF1
aF1
aF1
aF1
aF1
aF1
aa(lp540
F1
aF1
aF1
aF1
aF1
aF1
aF1
aF1
aF1
aF1
aF1
aF1
aF1
aF1
aF1
aF1
aF1
aF1
aF1
aF1
aF1
aF1
aF1
aF1
aF1
aF1
aF1
aF1
aF1
aa(lp541
F1
aF1
aF1
aF1
aF1
aF1
aF1
aF1
aF1
aF1
aF1
aF1
aF1
aF1
aF1
aF1
aF1
aF1
aF1
aF1
aF1
aF1
aF1
aF1
aF1
aF1
aF1
aF1
aF1
aa(lp542
F1
aF1
aF1
aF1
aF1
aF1
aF1
aF1
aF1
aF1
aF1
aF1
aF1
aF1
aF1
aF1
aF1
aF1
aF1
aF1
aF1
aF1
aF1
aF1
aF1
aF1
aF1
aF1
aF1
aa(lp543
F1
aF1
aF1
aF1
aF1
aF1
aF1
aF1
aF1
aF1
aF1
aF1
aF1
aF1
aF1
aF1
aF1
aF1
aF1
aF1
aF1
aF1
aF1
aF1
aF1
aF1
aF1
aF1
aF1
aa(lp544
F1
aF1
aF1
aF1
aF1
aF1
aF1
aF1
aF1
aF1
aF1
aF1
aF1
aF1
aF1
aF1
aF1
aF1
aF1
aF1
aF1
aF1
aF1
aF1
aF1
aF1
aF1
aF1
aF1
aa(lp545
F1
aF1
aF1
aF1
aF1
aF1
aF1
aF1
aF1
aF1
aF1
aF1
aF1
aF1
aF1
aF1
aF1
aF1
aF1
aF1
aF1
aF1
aF1
aF1
aF1
aF1
aF1
aF1
aF1
aa(lp546
F1
aF1
aF1
aF1
aF1
aF1
aF1
aF1
aF1
aF1
aF1
aF1
aF1
aF1
aF1
aF1
aF1
aF1
aF1
aF1
aF1
aF1
aF1
aF1
aF1
aF1
aF1
aF1
aF1
aa(lp547
F1
aF1
aF1
aF1
aF1
aF1
aF1
aF1
aF1
aF1
aF1
aF1
aF1
aF1
aF1
aF1
aF1
aF1
aF1
aF1
aF1
aF1
aF1
aF1
aF1
aF1
aF1
aF1
aF1
aa(lp548
F1
aF1
aF1
aF1
aF1
aF1
aF1
aF1
aF1
aF1
aF1
aF1
aF1
aF1
aF1
aF1
aF1
aF1
aF1
aF1
aF1
aF1
aF1
aF1
aF1
aF1
aF1
aF1
aF1
aa(lp549
F1
aF1
aF1
aF1
aF1
aF1
aF1
aF1
aF1
aF1
aF1
aF1
aF1
aF1
aF1
aF1
aF1
aF1
aF1
aF1
aF1
aF1
aF1
aF1
aF1
aF1
aF1
aF1
aF1
aa(lp550
F1
aF1
aF1
aF1
aF1
aF1
aF1
aF1
aF1
aF1
aF1
aF1
aF1
aF1
aF1
aF1
aF1
aF1
aF1
aF1
aF1
aF1
aF1
aF1
aF1
aF1
aF1
aF1
aF1
aa(lp551
F1
aF1
aF1
aF1
aF1
aF1
aF1
aF1
aF1
aF1
aF1
aF1
aF1
aF1
aF1
aF1
aF1
aF1
aF1
aF1
aF1
aF1
aF1
aF1
aF1
aF1
aF1
aF1
aF1
aa(lp552
F1
aF1
aF1
aF1
aF1
aF1
aF1
aF1
aF1
aF1
aF1
aF1
aF1
aF1
aF1
aF1
aF1
aF1
aF1
aF1
aF1
aF1
aF1
aF1
aF1
aF1
aF1
aF1
aF1
aa(lp553
F1
aF1
aF1
aF1
aF1
aF1
aF1
aF1
aF1
aF1
aF1
aF1
aF1
aF1
aF1
aF1
aF1
aF1
aF1
aF1
aF1
aF1
aF1
aF1
aF1
aF1
aF1
aF1
aF1
aa(lp554
F1
aF1
aF1
aF1
aF1
aF1
aF1
aF1
aF1
aF1
aF1
aF1
aF1
aF1
aF1
aF1
aF1
aF1
aF1
aF1
aF1
aF1
aF1
aF1
aF1
aF1
aF1
aF1
aF1
aa(lp555
F1
aF1
aF1
aF1
aF1
aF1
aF1
aF1
aF1
aF1
aF1
aF1
aF1
aF1
aF1
aF1
aF1
aF1
aF1
aF1
aF1
aF1
aF1
aF1
aF1
aF1
aF1
aF1
aF1
aa(lp556
F1
aF1
aF1
aF1
aF1
aF1
aF1
aF1
aF1
aF1
aF1
aF1
aF1
aF1
aF1
aF1
aF1
aF1
aF1
aF1
aF1
aF1
aF1
aF1
aF1
aF1
aF1
aF1
aF1
aa(lp557
F1
aF1
aF1
aF1
aF1
aF1
aF1
aF1
aF1
aF1
aF1
aF1
aF1
aF1
aF1
aF1
aF1
aF1
aF1
aF1
aF1
aF1
aF1
aF1
aF1
aF1
aF1
aF1
aF1
aa(lp558
F1
aF1
aF1
aF1
aF1
aF1
aF1
aF1
aF1
aF1
aF1
aF1
aF1
aF1
aF1
aF1
aF1
aF1
aF1
aF1
aF1
aF1
aF1
aF1
aF1
aF1
aF1
aF1
aF1
aa(lp559
F1
aF1
aF1
aF1
aF1
aF1
aF1
aF1
aF1
aF1
aF1
aF1
aF1
aF1
aF1
aF1
aF1
aF1
aF1
aF1
aF1
aF1
aF1
aF1
aF1
aF1
aF1
aF1
aF1
aa(lp560
F1
aF1
aF1
aF1
aF1
aF1
aF1
aF1
aF1
aF1
aF1
aF1
aF1
aF1
aF1
aF1
aF1
aF1
aF1
aF1
aF1
aF1
aF1
aF1
aF1
aF1
aF1
aF1
aF1
aa(lp561
F1
aF1
aF1
aF1
aF1
aF1
aF1
aF1
aF1
aF1
aF1
aF1
aF1
aF1
aF1
aF1
aF1
aF1
aF1
aF1
aF1
aF1
aF1
aF1
aF1
aF1
aF1
aF1
aF1
aa(lp562
F1
aF1
aF1
aF1
aF1
aF1
aF1
aF1
aF1
aF1
aF1
aF1
aF1
aF1
aF1
aF1
aF1
aF1
aF1
aF1
aF1
aF1
aF1
aF1
aF1
aF1
aF1
aF1
aF1
aa(lp563
F1
aF1
aF1
aF1
aF1
aF1
aF1
aF1
aF1
aF1
aF1
aF1
aF1
aF1
aF1
aF1
aF1
aF1
aF1
aF1
aF1
aF1
aF1
aF1
aF1
aF1
aF1
aF1
aF1
aa(lp564
F1
aF1
aF1
aF1
aF1
aF1
aF1
aF1
aF1
aF1
aF1
aF1
aF1
aF1
aF1
aF1
aF1
aF1
aF1
aF1
aF1
aF1
aF1
aF1
aF1
aF1
aF1
aF1
aF1
aa(lp565
F1
aF1
aF1
aF1
aF1
aF1
aF1
aF1
aF1
aF1
aF1
aF1
aF1
aF1
aF1
aF1
aF1
aF1
aF1
aF1
aF1
aF1
aF1
aF1
aF1
aF1
aF1
aF1
aF1
aa(lp566
F1
aF1
aF1
aF1
aF1
aF1
aF1
aF1
aF1
aF1
aF1
aF1
aF1
aF1
aF1
aF1
aF1
aF1
aF1
aF1
aF1
aF1
aF1
aF1
aF1
aF1
aF1
aF1
aF1
aa(lp567
F1
aF1
aF1
aF1
aF1
aF1
aF1
aF1
aF1
aF1
aF1
aF1
aF1
aF1
aF1
aF1
aF1
aF1
aF1
aF1
aF1
aF1
aF1
aF1
aF1
aF1
aF1
aF1
aF1
aa(lp568
F1
aF1
aF1
aF1
aF1
aF1
aF1
aF1
aF1
aF1
aF1
aF1
aF1
aF1
aF1
aF1
aF1
aF1
aF1
aF1
aF1
aF1
aF1
aF1
aF1
aF1
aF1
aF1
aF1
aa(lp569
F1
aF1
aF1
aF1
aF1
aF1
aF1
aF1
aF1
aF1
aF1
aF1
aF1
aF1
aF1
aF1
aF1
aF1
aF1
aF1
aF1
aF1
aF1
aF1
aF1
aF1
aF1
aF1
aF1
aa(lp570
F1
aF1
aF1
aF1
aF1
aF1
aF1
aF1
aF1
aF1
aF1
aF1
aF1
aF1
aF1
aF1
aF1
aF1
aF1
aF1
aF1
aF1
aF1
aF1
aF1
aF1
aF1
aF1
aF1
aa(lp571
F1
aF1
aF1
aF1
aF1
aF1
aF1
aF1
aF1
aF1
aF1
aF1
aF1
aF1
aF1
aF1
aF1
aF1
aF1
aF1
aF1
aF1
aF1
aF1
aF1
aF1
aF1
aF1
aF1
aa(lp572
F1
aF1
aF1
aF1
aF1
aF1
aF1
aF1
aF1
aF1
aF1
aF1
aF1
aF1
aF1
aF1
aF1
aF1
aF1
aF1
aF1
aF1
aF1
aF1
aF1
aF1
aF1
aF1
aF1
aa(lp573
F1
aF1
aF1
aF1
aF1
aF1
aF1
aF1
aF1
aF1
aF1
aF1
aF1
aF1
aF1
aF1
aF1
aF1
aF1
aF1
aF1
aF1
aF1
aF1
aF1
aF1
aF1
aF1
aF1
aa(lp574
F1
aF1
aF1
aF1
aF1
aF1
aF1
aF1
aF1
aF1
aF1
aF1
aF1
aF1
aF1
aF1
aF1
aF1
aF1
aF1
aF1
aF1
aF1
aF1
aF1
aF1
aF1
aF1
aF1
aa(lp575
F1
aF1
aF1
aF1
aF1
aF1
aF1
aF1
aF1
aF1
aF1
aF1
aF1
aF1
aF1
aF1
aF1
aF1
aF1
aF1
aF1
aF1
aF1
aF1
aF1
aF1
aF1
aF1
aF1
aa(lp576
F1
aF1
aF1
aF1
aF1
aF1
aF1
aF1
aF1
aF1
aF1
aF1
aF1
aF1
aF1
aF1
aF1
aF1
aF1
aF1
aF1
aF1
aF1
aF1
aF1
aF1
aF1
aF1
aF1
aa(lp577
F1
aF1
aF1
aF1
aF1
aF1
aF1
aF1
aF1
aF1
aF1
aF1
aF1
aF1
aF1
aF1
aF1
aF1
aF1
aF1
aF1
aF1
aF1
aF1
aF1
aF1
aF1
aF1
aF1
aa(lp578
F1
aF1
aF1
aF1
aF1
aF1
aF1
aF1
aF1
aF1
aF1
aF1
aF1
aF1
aF1
aF1
aF1
aF1
aF1
aF1
aF1
aF1
aF1
aF1
aF1
aF1
aF1
aF1
aF1
aa(lp579
F1
aF1
aF1
aF1
aF1
aF1
aF1
aF1
aF1
aF1
aF1
aF1
aF1
aF1
aF1
aF1
aF1
aF1
aF1
aF1
aF1
aF1
aF1
aF1
aF1
aF1
aF1
aF1
aF1
aa(lp580
F1
aF1
aF1
aF1
aF1
aF1
aF1
aF1
aF1
aF1
aF1
aF1
aF1
aF1
aF1
aF1
aF1
aF1
aF1
aF1
aF1
aF1
aF1
aF1
aF1
aF1
aF1
aF1
aF1
aa(lp581
F1
aF1
aF1
aF1
aF1
aF1
aF1
aF1
aF1
aF1
aF1
aF1
aF1
aF1
aF1
aF1
aF1
aF1
aF1
aF1
aF1
aF1
aF1
aF1
aF1
aF1
aF1
aF1
aF1
aa(lp582
F1
aF1
aF1
aF1
aF1
aF1
aF1
aF1
aF1
aF1
aF1
aF1
aF1
aF1
aF1
aF1
aF1
aF1
aF1
aF1
aF1
aF1
aF1
aF1
aF1
aF1
aF1
aF1
aF1
aa(lp583
F1
aF1
aF1
aF1
aF1
aF1
aF1
aF1
aF1
aF1
aF1
aF1
aF1
aF1
aF1
aF1
aF1
aF1
aF1
aF1
aF1
aF1
aF1
aF1
aF1
aF1
aF1
aF1
aF1
aa(lp584
F1
aF1
aF1
aF1
aF1
aF1
aF1
aF1
aF1
aF1
aF1
aF1
aF1
aF1
aF1
aF1
aF1
aF1
aF1
aF1
aF1
aF1
aF1
aF1
aF1
aF1
aF1
aF1
aF1
aa(lp585
F1
aF1
aF1
aF1
aF1
aF1
aF1
aF1
aF1
aF1
aF1
aF1
aF1
aF1
aF1
aF1
aF1
aF1
aF1
aF1
aF1
aF1
aF1
aF1
aF1
aF1
aF1
aF1
aF1
aa(lp586
F1
aF1
aF1
aF1
aF1
aF1
aF1
aF1
aF1
aF1
aF1
aF1
aF1
aF1
aF1
aF1
aF1
aF1
aF1
aF1
aF1
aF1
aF1
aF1
aF1
aF1
aF1
aF1
aF1
aa(lp587
F1
aF1
aF1
aF1
aF1
aF1
aF1
aF1
aF1
aF1
aF1
aF1
aF1
aF1
aF1
aF1
aF1
aF1
aF1
aF1
aF1
aF1
aF1
aF1
aF1
aF1
aF1
aF1
aF1
aa(lp588
F1
aF1
aF1
aF1
aF1
aF1
aF1
aF1
aF1
aF1
aF1
aF1
aF1
aF1
aF1
aF1
aF1
aF1
aF1
aF1
aF1
aF1
aF1
aF1
aF1
aF1
aF1
aF1
aF1
aa(lp589
F1
aF1
aF1
aF1
aF1
aF1
aF1
aF1
aF1
aF1
aF1
aF1
aF1
aF1
aF1
aF1
aF1
aF1
aF1
aF1
aF1
aF1
aF1
aF1
aF1
aF1
aF1
aF1
aF1
aa(lp590
F1
aF1
aF1
aF1
aF1
aF1
aF1
aF1
aF1
aF1
aF1
aF1
aF1
aF1
aF1
aF1
aF1
aF1
aF1
aF1
aF1
aF1
aF1
aF1
aF1
aF1
aF1
aF1
aF1
aa(lp591
F1
aF1
aF1
aF1
aF1
aF1
aF1
aF1
aF1
aF1
aF1
aF1
aF1
aF1
aF1
aF1
aF1
aF1
aF1
aF1
aF1
aF1
aF1
aF1
aF1
aF1
aF1
aF1
aF1
aa(lp592
F1
aF1
aF1
aF1
aF1
aF1
aF1
aF1
aF1
aF1
aF1
aF1
aF1
aF1
aF1
aF1
aF1
aF1
aF1
aF1
aF1
aF1
aF1
aF1
aF1
aF1
aF1
aF1
aF1
aa(lp593
F1
aF1
aF1
aF1
aF1
aF1
aF1
aF1
aF1
aF1
aF1
aF1
aF1
aF1
aF1
aF1
aF1
aF1
aF1
aF1
aF1
aF1
aF1
aF1
aF1
aF1
aF1
aF1
aF1
aa(lp594
F1
aF1
aF1
aF1
aF1
aF1
aF1
aF1
aF1
aF1
aF1
aF1
aF1
aF1
aF1
aF1
aF1
aF1
aF1
aF1
aF1
aF1
aF1
aF1
aF1
aF1
aF1
aF1
aF1
aa(lp595
F1
aF1
aF1
aF1
aF1
aF1
aF1
aF1
aF1
aF1
aF1
aF1
aF1
aF1
aF1
aF1
aF1
aF1
aF1
aF1
aF1
aF1
aF1
aF1
aF1
aF1
aF1
aF1
aF1
aa(lp596
F1
aF1
aF1
aF1
aF1
aF1
aF1
aF1
aF1
aF1
aF1
aF1
aF1
aF1
aF1
aF1
aF1
aF1
aF1
aF1
aF1
aF1
aF1
aF1
aF1
aF1
aF1
aF1
aF1
aa(lp597
F1
aF1
aF1
aF1
aF1
aF1
aF1
aF1
aF1
aF1
aF1
aF1
aF1
aF1
aF1
aF1
aF1
aF1
aF1
aF1
aF1
aF1
aF1
aF1
aF1
aF1
aF1
aF1
aF1
aa(lp598
F1
aF1
aF1
aF1
aF1
aF1
aF1
aF1
aF1
aF1
aF1
aF1
aF1
aF1
aF1
aF1
aF1
aF1
aF1
aF1
aF1
aF1
aF1
aF1
aF1
aF1
aF1
aF1
aF1
aa(lp599
F1
aF1
aF1
aF1
aF1
aF1
aF1
aF1
aF1
aF1
aF1
aF1
aF1
aF1
aF1
aF1
aF1
aF1
aF1
aF1
aF1
aF1
aF1
aF1
aF1
aF1
aF1
aF1
aF1
aa(lp600
F1
aF1
aF1
aF1
aF1
aF1
aF1
aF1
aF1
aF1
aF1
aF1
aF1
aF1
aF1
aF1
aF1
aF1
aF1
aF1
aF1
aF1
aF1
aF1
aF1
aF1
aF1
aF1
aF1
aa(lp601
F1
aF1
aF1
aF1
aF1
aF1
aF1
aF1
aF1
aF1
aF1
aF1
aF1
aF1
aF1
aF1
aF1
aF1
aF1
aF1
aF1
aF1
aF1
aF1
aF1
aF1
aF1
aF1
aF1
aa(lp602
F1
aF1
aF1
aF1
aF1
aF1
aF1
aF1
aF1
aF1
aF1
aF1
aF1
aF1
aF1
aF1
aF1
aF1
aF1
aF1
aF1
aF1
aF1
aF1
aF1
aF1
aF1
aF1
aF1
aa(lp603
F1
aF1
aF1
aF1
aF1
aF1
aF1
aF1
aF1
aF1
aF1
aF1
aF1
aF1
aF1
aF1
aF1
aF1
aF1
aF1
aF1
aF1
aF1
aF1
aF1
aF1
aF1
aF1
aF1
aa(lp604
F1
aF1
aF1
aF1
aF1
aF1
aF1
aF1
aF1
aF1
aF1
aF1
aF1
aF1
aF1
aF1
aF1
aF1
aF1
aF1
aF1
aF1
aF1
aF1
aF1
aF1
aF1
aF1
aF1
aa(lp605
F1
aF1
aF1
aF1
aF1
aF1
aF1
aF1
aF1
aF1
aF1
aF1
aF1
aF1
aF1
aF1
aF1
aF1
aF1
aF1
aF1
aF1
aF1
aF1
aF1
aF1
aF1
aF1
aF1
aa(lp606
F1
aF1
aF1
aF1
aF1
aF1
aF1
aF1
aF1
aF1
aF1
aF1
aF1
aF1
aF1
aF1
aF1
aF1
aF1
aF1
aF1
aF1
aF1
aF1
aF1
aF1
aF1
aF1
aF1
aa(lp607
F1
aF1
aF1
aF1
aF1
aF1
aF1
aF1
aF1
aF1
aF1
aF1
aF1
aF1
aF1
aF1
aF1
aF1
aF1
aF1
aF1
aF1
aF1
aF1
aF1
aF1
aF1
aF1
aF1
aa(lp608
F1
aF1
aF1
aF1
aF1
aF1
aF1
aF1
aF1
aF1
aF1
aF1
aF1
aF1
aF1
aF1
aF1
aF1
aF1
aF1
aF1
aF1
aF1
aF1
aF1
aF1
aF1
aF1
aF1
aa(lp609
F1
aF1
aF1
aF1
aF1
aF1
aF1
aF1
aF1
aF1
aF1
aF1
aF1
aF1
aF1
aF1
aF1
aF1
aF1
aF1
aF1
aF1
aF1
aF1
aF1
aF1
aF1
aF1
aF1
aa(lp610
F1
aF1
aF1
aF1
aF1
aF1
aF1
aF1
aF1
aF1
aF1
aF1
aF1
aF1
aF1
aF1
aF1
aF1
aF1
aF1
aF1
aF1
aF1
aF1
aF1
aF1
aF1
aF1
aF1
aa(lp611
F1
aF1
aF1
aF1
aF1
aF1
aF1
aF1
aF1
aF1
aF1
aF1
aF1
aF1
aF1
aF1
aF1
aF1
aF1
aF1
aF1
aF1
aF1
aF1
aF1
aF1
aF1
aF1
aF1
aa(lp612
F1
aF1
aF1
aF1
aF1
aF1
aF1
aF1
aF1
aF1
aF1
aF1
aF1
aF1
aF1
aF1
aF1
aF1
aF1
aF1
aF1
aF1
aF1
aF1
aF1
aF1
aF1
aF1
aF1
aa(lp613
F1
aF1
aF1
aF1
aF1
aF1
aF1
aF1
aF1
aF1
aF1
aF1
aF1
aF1
aF1
aF1
aF1
aF1
aF1
aF1
aF1
aF1
aF1
aF1
aF1
aF1
aF1
aF1
aF1
aa(lp614
F1
aF1
aF1
aF1
aF1
aF1
aF1
aF1
aF1
aF1
aF1
aF1
aF1
aF1
aF1
aF1
aF1
aF1
aF1
aF1
aF1
aF1
aF1
aF1
aF1
aF1
aF1
aF1
aF1
aa(lp615
F1
aF1
aF1
aF1
aF1
aF1
aF1
aF1
aF1
aF1
aF1
aF1
aF1
aF1
aF1
aF1
aF1
aF1
aF1
aF1
aF1
aF1
aF1
aF1
aF1
aF1
aF1
aF1
aF1
aa(lp616
F1
aF1
aF1
aF1
aF1
aF1
aF1
aF1
aF1
aF1
aF1
aF1
aF1
aF1
aF1
aF1
aF1
aF1
aF1
aF1
aF1
aF1
aF1
aF1
aF1
aF1
aF1
aF1
aF1
aa(lp617
F1
aF1
aF1
aF1
aF1
aF1
aF1
aF1
aF1
aF1
aF1
aF1
aF1
aF1
aF1
aF1
aF1
aF1
aF1
aF1
aF1
aF1
aF1
aF1
aF1
aF1
aF1
aF1
aF1
aa(lp618
F1
aF1
aF1
aF1
aF1
aF1
aF1
aF1
aF1
aF1
aF1
aF1
aF1
aF1
aF1
aF1
aF1
aF1
aF1
aF1
aF1
aF1
aF1
aF1
aF1
aF1
aF1
aF1
aF1
aa(lp619
F1
aF1
aF1
aF1
aF1
aF1
aF1
aF1
aF1
aF1
aF1
aF1
aF1
aF1
aF1
aF1
aF1
aF1
aF1
aF1
aF1
aF1
aF1
aF1
aF1
aF1
aF1
aF1
aF1
aa(lp620
F1
aF1
aF1
aF1
aF1
aF1
aF1
aF1
aF1
aF1
aF1
aF1
aF1
aF1
aF1
aF1
aF1
aF1
aF1
aF1
aF1
aF1
aF1
aF1
aF1
aF1
aF1
aF1
aF1
aa(lp621
F1
aF1
aF1
aF1
aF1
aF1
aF1
aF1
aF1
aF1
aF1
aF1
aF1
aF1
aF1
aF1
aF1
aF1
aF1
aF1
aF1
aF1
aF1
aF1
aF1
aF1
aF1
aF1
aF1
aa(lp622
F1
aF1
aF1
aF1
aF1
aF1
aF1
aF1
aF1
aF1
aF1
aF1
aF1
aF1
aF1
aF1
aF1
aF1
aF1
aF1
aF1
aF1
aF1
aF1
aF1
aF1
aF1
aF1
aF1
aa(lp623
F1
aF1
aF1
aF1
aF1
aF1
aF1
aF1
aF1
aF1
aF1
aF1
aF1
aF1
aF1
aF1
aF1
aF1
aF1
aF1
aF1
aF1
aF1
aF1
aF1
aF1
aF1
aF1
aF1
aa(lp624
F1
aF1
aF1
aF1
aF1
aF1
aF1
aF1
aF1
aF1
aF1
aF1
aF1
aF1
aF1
aF1
aF1
aF1
aF1
aF1
aF1
aF1
aF1
aF1
aF1
aF1
aF1
aF1
aF1
aa(lp625
F1
aF1
aF1
aF1
aF1
aF1
aF1
aF1
aF1
aF1
aF1
aF1
aF1
aF1
aF1
aF1
aF1
aF1
aF1
aF1
aF1
aF1
aF1
aF1
aF1
aF1
aF1
aF1
aF1
aa(lp626
F1
aF1
aF1
aF1
aF1
aF1
aF1
aF1
aF1
aF1
aF1
aF1
aF1
aF1
aF1
aF1
aF1
aF1
aF1
aF1
aF1
aF1
aF1
aF1
aF1
aF1
aF1
aF1
aF1
aa(lp627
F1
aF1
aF1
aF1
aF1
aF1
aF1
aF1
aF1
aF1
aF1
aF1
aF1
aF1
aF1
aF1
aF1
aF1
aF1
aF1
aF1
aF1
aF1
aF1
aF1
aF1
aF1
aF1
aF1
aa(lp628
F1
aF1
aF1
aF1
aF1
aF1
aF1
aF1
aF1
aF1
aF1
aF1
aF1
aF1
aF1
aF1
aF1
aF1
aF1
aF1
aF1
aF1
aF1
aF1
aF1
aF1
aF1
aF1
aF1
aa(lp629
F1
aF1
aF1
aF1
aF1
aF1
aF1
aF1
aF1
aF1
aF1
aF1
aF1
aF1
aF1
aF1
aF1
aF1
aF1
aF1
aF1
aF1
aF1
aF1
aF1
aF1
aF1
aF1
aF1
aa(lp630
F1
aF1
aF1
aF1
aF1
aF1
aF1
aF1
aF1
aF1
aF1
aF1
aF1
aF1
aF1
aF1
aF1
aF1
aF1
aF1
aF1
aF1
aF1
aF1
aF1
aF1
aF1
aF1
aF1
aa(lp631
F1
aF1
aF1
aF1
aF1
aF1
aF1
aF1
aF1
aF1
aF1
aF1
aF1
aF1
aF1
aF1
aF1
aF1
aF1
aF1
aF1
aF1
aF1
aF1
aF1
aF1
aF1
aF1
aF1
aa(lp632
F1
aF1
aF1
aF1
aF1
aF1
aF1
aF1
aF1
aF1
aF1
aF1
aF1
aF1
aF1
aF1
aa(lp633
F1
aF1
aF1
aF1
aF1
aF1
aF1
aF1
aF1
aF1
aF1
aF1
aF1
aF1
aF1
aF1
aF1
aF1
aF1
aF1
aF1
aF1
aF1
aF1
aF1
aF1
aF1
aF1
aF1
aa(lp634
F1
aF1
aF1
aF1
aF1
aF1
aF1
aF1
aF1
aF1
aF1
aF1
aF1
aF1
aF1
aF1
aF1
aF1
aF1
aF1
aF1
aF1
aF1
aF1
aF1
aF1
aF1
aF1
aF1
aa(lp635
F1
aF1
aF1
aF1
aF1
aF1
aF1
aF1
aF1
aF1
aF1
aF1
aF1
aF1
aF1
aF1
aF1
aF1
aF1
aF1
aF1
aF1
aF1
aF1
aF1
aF1
aF1
aF1
aF1
aa(lp636
F1
aF1
aF1
aF1
aF1
aF1
aF1
aF1
aF1
aF1
aF1
aF1
aF1
aF1
aF1
aF1
aF1
aF1
aF1
aF1
aF1
aF1
aF1
aF1
aF1
aF1
aF1
aF1
aF1
aa(lp637
F1
aF1
aF1
aF1
aF1
aF1
aF1
aF1
aF1
aF1
aF1
aF1
aF1
aF1
aF1
aF1
aF1
aF1
aF1
aF1
aF1
aF1
aF1
aF1
aF1
aF1
aF1
aF1
aF1
aa(lp638
F1
aF1
aF1
aF1
aF1
aF1
aF1
aF1
aF1
aF1
aF1
aF1
aF1
aF1
aF1
aF1
aF1
aF1
aF1
aF1
aF1
aF1
aF1
aF1
aF1
aF1
aF1
aF1
aF1
aa(lp639
F1
aF1
aF1
aF1
aF1
aF1
aF1
aF1
aF1
aF1
aF1
aF1
aF1
aF1
aF1
aF1
aF1
aF1
aF1
aF1
aF1
aF1
aF1
aF1
aF1
aF1
aF1
aF1
aF1
aa(lp640
F1
aF1
aF1
aF1
aF1
aF1
aF1
aF1
aF1
aF1
aF1
aF1
aF1
aF1
aF1
aF1
aF1
aF1
aF1
aF1
aF1
aF1
aF1
aF1
aF1
aF1
aF1
aF1
aF1
aa(lp641
F1
aF1
aF1
aF1
aF1
aF1
aF1
aF1
aF1
aF1
aF1
aF1
aF1
aF1
aF1
aF1
aF1
aF1
aF1
aF1
aF1
aF1
aF1
aF1
aF1
aF1
aF1
aF1
aF1
aa(lp642
F1
aF1
aF1
aF1
aF1
aF1
aF1
aF1
aF1
aF1
aF1
aF1
aF1
aF1
aF1
aF1
aF1
aF1
aF1
aF1
aF1
aF1
aF1
aF1
aF1
aF1
aF1
aF1
aF1
aa(lp643
F1
aF1
aF1
aF1
aF1
aF1
aF1
aF1
aF1
aF1
aF1
aF1
aF1
aF1
aF1
aF1
aF1
aF1
aF1
aF1
aF1
aF1
aF1
aF1
aF1
aF1
aF1
aF1
aF1
aa(lp644
F1
aF1
aF1
aF1
aF1
aF1
aF1
aF1
aF1
aF1
aF1
aF1
aF1
aF1
aF1
aF1
aF1
aF1
aF1
aF1
aF1
aF1
aF1
aF1
aF1
aF1
aF1
aF1
aF1
aa(lp645
F1
aF1
aF1
aF1
aF1
aF1
aF1
aF1
aF1
aF1
aF1
aF1
aF1
aF1
aF1
aF1
aF1
aF1
aF1
aF1
aF1
aF1
aF1
aF1
aF1
aF1
aF1
aF1
aF1
aa(lp646
F1
aF1
aF1
aF1
aF1
aF1
aF1
aF1
aF1
aF1
aF1
aF1
aF1
aF1
aF1
aF1
aF1
aF1
aF1
aF1
aF1
aF1
aF1
aF1
aF1
aF1
aF1
aF1
aF1
aa(lp647
F1
aF1
aF1
aF1
aF1
aF1
aF1
aF1
aF1
aF1
aF1
aF1
aF1
aF1
aF1
aF1
aF1
aF1
aF1
aF1
aF1
aF1
aF1
aF1
aF1
aF1
aF1
aF1
aF1
aa(lp648
F1
aF1
aF1
aF1
aF1
aF1
aF1
aF1
aF1
aF1
aF1
aF1
aF1
aF1
aF1
aF1
aF1
aF1
aF1
aF1
aF1
aF1
aF1
aF1
aF1
aF1
aF1
aF1
aF1
aa(lp649
F1
aF1
aF1
aF1
aF1
aF1
aF1
aF1
aF1
aF1
aF1
aF1
aF1
aF1
aF1
aF1
aF1
aF1
aF1
aF1
aF1
aF1
aF1
aF1
aF1
aF1
aF1
aF1
aF1
aa(lp650
F1
aF1
aF1
aF1
aF1
aF1
aF1
aF1
aF1
aF1
aF1
aF1
aF1
aF1
aF1
aF1
aF1
aF1
aF1
aF1
aF1
aF1
aF1
aF1
aF1
aF1
aF1
aF1
aF1
aa(lp651
F1
aF1
aF1
aF1
aF1
aF1
aF1
aF1
aF1
aF1
aF1
aF1
aF1
aF1
aF1
aF1
aF1
aF1
aF1
aF1
aF1
aF1
aF1
aF1
aF1
aF1
aF1
aF1
aF1
aa(lp652
F1
aF1
aF1
aF1
aF1
aF1
aF1
aF1
aF1
aF1
aF1
aF1
aF1
aF1
aF1
aF1
aF1
aF1
aF1
aF1
aF1
aF1
aF1
aF1
aF1
aF1
aF1
aF1
aF1
aa(lp653
F1
aF1
aF1
aF1
aF1
aF1
aF1
aF1
aF1
aF1
aF1
aF1
aF1
aF1
aF1
aF1
aF1
aF1
aF1
aF1
aF1
aF1
aF1
aF1
aF1
aF1
aF1
aF1
aF1
aa(lp654
F1
aF1
aF1
aF1
aF1
aF1
aF1
aF1
aF1
aF1
aF1
aF1
aF1
aF1
aF1
aF1
aF1
aF1
aF1
aF1
aF1
aF1
aF1
aF1
aF1
aF1
aF1
aF1
aF1
aa(lp655
F1
aF1
aF1
aF1
aF1
aF1
aF1
aF1
aF1
aF1
aF1
aF1
aF1
aF1
aF1
aF1
aF1
aF1
aF1
aF1
aF1
aF1
aF1
aF1
aF1
aF1
aF1
aF1
aF1
aa(lp656
F1
aF1
aF1
aF1
aF1
aF1
aF1
aF1
aF1
aF1
aF1
aF1
aF1
aF1
aF1
aF1
aF1
aF1
aF1
aF1
aF1
aF1
aF1
aF1
aF1
aF1
aF1
aF1
aF1
aa(lp657
F1
aF1
aF1
aF1
aF1
aF1
aF1
aF1
aF1
aF1
aF1
aF1
aF1
aF1
aF1
aF1
aF1
aF1
aF1
aF1
aF1
aF1
aF1
aF1
aF1
aF1
aF1
aF1
aF1
aa(lp658
F1
aF1
aF1
aF1
aF1
aF1
aF1
aF1
aF1
aF1
aF1
aF1
aF1
aF1
aF1
aF1
aF1
aF1
aF1
aF1
aF1
aF1
aF1
aF1
aF1
aF1
aF1
aF1
aF1
aa(lp659
F1
aF1
aF1
aF1
aF1
aF1
aF1
aF1
aF1
aF1
aF1
aF1
aF1
aF1
aF1
aF1
aF1
aF1
aF1
aF1
aF1
aF1
aF1
aF1
aF1
aF1
aF1
aF1
aF1
aa(lp660
F1
aF1
aF1
aF1
aF1
aF1
aF1
aF1
aF1
aF1
aF1
aF1
aF1
aF1
aF1
aF1
aF1
aF1
aF1
aF1
aF1
aF1
aF1
aF1
aF1
aF1
aF1
aF1
aF1
aa(lp661
F1
aF1
aF1
aF1
aF1
aF1
aF1
aF1
aF1
aF1
aF1
aF1
aF1
aF1
aF1
aF1
aF1
aF1
aF1
aF1
aF1
aF1
aF1
aF1
aF1
aF1
aF1
aF1
aF1
aa(lp662
F1
aF1
aF1
aF1
aF1
aF1
aF1
aF1
aF1
aF1
aF1
aF1
aF1
aF1
aF1
aF1
aF1
aF1
aF1
aF1
aF1
aF1
aF1
aF1
aF1
aF1
aF1
aF1
aF1
aa(lp663
F1
aF1
aF1
aF1
aF1
aF1
aF1
aF1
aF1
aF1
aF1
aF1
aF1
aF1
aF1
aF1
aF1
aF1
aF1
aF1
aF1
aF1
aF1
aF1
aF1
aF1
aF1
aF1
aF1
aa(lp664
F1
aF1
aF1
aF1
aF1
aF1
aF1
aF1
aF1
aF1
aF1
aF1
aF1
aF1
aF1
aF1
aF1
aF1
aF1
aF1
aF1
aF1
aF1
aF1
aF1
aF1
aF1
aF1
aF1
aa(lp665
F1
aF1
aF1
aF1
aF1
aF1
aF1
aF1
aF1
aF1
aF1
aF1
aF1
aF1
aF1
aF1
aF1
aF1
aF1
aF1
aF1
aF1
aF1
aF1
aF1
aF1
aF1
aF1
aF1
aa(lp666
F1
aF1
aF1
aF1
aF1
aF1
aF1
aF1
aF1
aF1
aF1
aF1
aF1
aF1
aF1
aF1
aF1
aF1
aF1
aF1
aF1
aF1
aF1
aF1
aF1
aF1
aF1
aF1
aF1
aa(lp667
F1
aF1
aF1
aF1
aF1
aF1
aF1
aF1
aF1
aF1
aF1
aF1
aF1
aF1
aF1
aF1
aF1
aF1
aF1
aF1
aF1
aF1
aF1
aF1
aF1
aF1
aF1
aF1
aF1
aa(lp668
F1
aF1
aF1
aF1
aF1
aF1
aF1
aF1
aF1
aF1
aF1
aF1
aF1
aF1
aF1
aF1
aF1
aF1
aF1
aF1
aF1
aF1
aF1
aF1
aF1
aF1
aF1
aF1
aF1
aa(lp669
F1
aF1
aF1
aF1
aF1
aF1
aF1
aF1
aF1
aF1
aF1
aF1
aF1
aF1
aF1
aF1
aF1
aF1
aF1
aF1
aF1
aF1
aF1
aF1
aF1
aF1
aF1
aF1
aF1
aa(lp670
F1
aF1
aF1
aF1
aF1
aF1
aF1
aF1
aF1
aF1
aF1
aF1
aF1
aF1
aF1
aF1
aF1
aF1
aF1
aF1
aF1
aF1
aF1
aF1
aF1
aF1
aF1
aF1
aF1
aa(lp671
F1
aF1
aF1
aF1
aF1
aF1
aF1
aF1
aF1
aF1
aF1
aF1
aF1
aF1
aF1
aF1
aF1
aF1
aF1
aF1
aF1
aF1
aF1
aF1
aF1
aF1
aF1
aF1
aF1
aa(lp672
F1
aF1
aF1
aF1
aF1
aF1
aF1
aF1
aF1
aF1
aF1
aF1
aF1
aF1
aF1
aF1
aF1
aF1
aF1
aF1
aF1
aF1
aF1
aF1
aF1
aF1
aF1
aF1
aF1
aa(lp673
F1
aF1
aF1
aF1
aF1
aF1
aF1
aF1
aF1
aF1
aF1
aF1
aF1
aF1
aF1
aF1
aF1
aF1
aF1
aF1
aF1
aF1
aF1
aF1
aF1
aF1
aF1
aF1
aF1
aa(lp674
F1
aF1
aF1
aF1
aF1
aF1
aF1
aF1
aF1
aF1
aF1
aF1
aF1
aF1
aF1
aF1
aF1
aF1
aF1
aF1
aF1
aF1
aF1
aF1
aF1
aF1
aF1
aF1
aF1
aa(lp675
F1
aF1
aF1
aF1
aF1
aF1
aF1
aF1
aF1
aF1
aF1
aF1
aF1
aF1
aF1
aF1
aF1
aF1
aF1
aF1
aF1
aF1
aF1
aF1
aF1
aF1
aF1
aF1
aF1
aa(lp676
F1
aF1
aF1
aF1
aF1
aF1
aF1
aF1
aF1
aF1
aF1
aF1
aF1
aF1
aF1
aF1
aF1
aF1
aF1
aF1
aF1
aF1
aF1
aF1
aF1
aF1
aF1
aF1
aF1
aa(lp677
F1
aF1
aF1
aF1
aF1
aF1
aF1
aF1
aF1
aF1
aF1
aF1
aF1
aF1
aF1
aF1
aF1
aF1
aF1
aF1
aF1
aF1
aF1
aF1
aF1
aF1
aF1
aF1
aF1
aa(lp678
F1
aF1
aF1
aF1
aF1
aF1
aF1
aF1
aF1
aF1
aF1
aF1
aF1
aF1
aF1
aF1
aF1
aF1
aF1
aF1
aF1
aF1
aF1
aF1
aF1
aF1
aF1
aF1
aF1
aa(lp679
F1
aF1
aF1
aF1
aF1
aF1
aF1
aF1
aF1
aF1
aF1
aF1
aF1
aF1
aF1
aF1
aF1
aF1
aF1
aF1
aF1
aF1
aF1
aF1
aF1
aF1
aF1
aF1
aF1
aa(lp680
F1
aF1
aF1
aF1
aF1
aF1
aF1
aF1
aF1
aF1
aF1
aF1
aF1
aF1
aF1
aF1
aF1
aa(lp681
F1
aF1
aF1
aF1
aF1
aF1
aF1
aF1
aF1
aF1
aF1
aF1
aF1
aF1
aF1
aF1
aF1
aa(lp682
F1
aF1
aF1
aF1
aF1
aF1
aF1
aF1
aF1
aF1
aF1
aF1
aF1
aF1
aF1
aF1
aF1
aa(lp683
F1
aF1
aF1
aF1
aF1
aF1
aF1
aF1
aF1
aF1
aF1
aF1
aF1
aF1
aF1
aF1
aF1
aa(lp684
F1
aF1
aF1
aF1
aF1
aF1
aF1
aF1
aF1
aF1
aF1
aF1
aF1
aF1
aF1
aF1
aF1
aa(lp685
F1
aF1
aF1
aF1
aF1
aF1
aF1
aF1
aF1
aF1
aF1
aF1
aF1
aF1
aF1
aF1
aF1
aatbsbs.