(dp1
S'vocab'
p2
(dp3
(S'StackSpan2'
p4
S'Distance-To-Begin'
p5
I53
tp6
I0
s(S'LEN-StackSpan2-QueueSpan1'
p7
I7
I9
tp8
I1
s(S'Begin-Word-StackSpan1-QueueSpan1'
p9
S'kidder'
S'that'
tp10
I2
s(S'End-Word-StackSpan1-QueueSpan1'
p11
S'carpenter.<p>'
S'far,'
tp12
I3
s(g11
S'nantucket."<p>'
S'opportunity'
tp13
I4
s(S'StackSpan1'
p14
g5
I26
tp15
I5
s(S'DIST-StackSpan2-QueuSpan1'
p16
I22
tp17
I6
s(S'Begin-Word-StackSpan2-QueueSpan1'
p18
S'the'
S'kidder'
tp19
I7
s(S'LEN-StackSpan1-QueueSpan1'
p20
I4
I1
tp21
I8
s(S'End-Word-StackSpan1-StackSpan2'
p22
S'says'
S'people.<p>'
tp23
I1266
s(S'End-Word-StackSpan2-QueueSpan1'
p24
S'point.'
S'works'
tp25
I10
s(g7
I368
I11
tp26
I11
s(S'Begin-Word-StackSpan1'
p27
S'so'
tp28
I12
s(g22
S'bank.<p>'
S'point.'
tp29
I13
s(g27
S'puts'
tp30
I14
s(g20
I131
I17
tp31
I15
s(g9
S'when'
S'retires'
tp32
I16
s(S'DIST-FROM-START-StackSpan1'
p33
I71
tp34
I17
s(g9
S'kidder'
S'or,'
p35
tp36
I18
s(g4
g5
I71
tp37
I19
s(g27
S'when'
tp38
I2920
s(g9
S'when'
S'he'
tp39
I1904
s(g11
S'harder'
S'past,"'
tp40
I21
s(S'End-Word-StackSpan2'
p41
S'home,'
tp42
I22
s(S'End-Word-QueueSpan1'
p43
S'background,'
tp44
I23
s(g41
S'trading;'
tp45
I25
s(S'Begin-Word-StackSpan2'
p46
S'without'
tp47
I26
s(g18
S'the'
S'as'
tp48
I1906
s(g18
S'but'
S'in'
tp49
I28
s(S'LEN-StackSpan1'
p50
I131
tp51
I29
s(S'QueueSpan1'
p52
g5
I1
tp53
I30
s(g4
g5
I138
tp54
I31
s(g18
S'mr.'
S'more'
tp55
I32
s(g14
S'Length-EDU'
p56
I21
tp57
I34
s(g4
g5
I11
tp58
I1271
s(g9
S'they'
S'kidder'
tp59
I36
s(g18
g35
S'puts'
tp60
I37
s(S'End-Word-StackSpan1'
p61
S'point.'
tp62
I38
s(S'Begin-Word-StackSpan1-StackSpan2'
p63
S'the'
S'so'
tp64
I39
s(g11
S'says.<p>'
S'kidder'
tp65
I40
s(S'DIST-StackSpan1-StackSpan2'
p66
I7
tp67
I847
s(g20
I684
I5
tp68
I42
s(g7
I13
I7
tp69
I43
s(g11
S'back.<p>'
S'meltdown,'
tp70
I44
s(g4
g56
I1
tp71
I45
s(g61
S'said:'
tp72
I46
s(g14
g5
I99
tp73
I47
s(g24
S'gone.<p>'
S'cathcart'
tp74
I48
s(g33
I62
tp75
I49
s(g63
S'not'
S'that'
tp76
I50
s(g9
S'the'
S'to'
tp77
I51
s(g20
I8
I9
tp78
I52
s(g22
S'one."<p>'
S'succeed.'
tp79
I53
s(g52
g5
I102
tp80
I54
s(g41
S'trading.<p>'
tp81
I55
s(g43
S'instruments'
tp82
I56
s(g18
S'the'
S'who'
tp83
I57
s(g4
g5
I110
tp84
I58
s(g22
S'kidder.'
S'directors,'
tp85
I59
s(g22
S'forces,"'
S'investors.<p>'
tp86
I60
s(g24
S'kidder.'
S'now,'
p87
tp88
I2612
s(g27
S'was'
tp89
I61
s(g7
I9
I7
tp90
I3137
s(g22
S'says.'
S'nantucket."<p>'
tp91
I63
s(g4
g5
I97
tp92
I2524
s(g24
S'bickered.'
S'carpenter,'
tp93
I1912
s(g22
S'people.<p>'
S'trimmed'
tp94
I66
s(g22
S'september.'
S'dwight,'
tp95
I67
s(g18
S'--'
S'confides'
p96
tp97
I68
s(g63
S'by'
S'now,'
tp98
I69
s(g24
S'harder'
S'june.<p>'
tp99
I3138
s(g11
S'says,'
S'out.<p>'
tp100
I71
s(g22
S'happen.<p>'
S'camps.'
tp101
I72
s(g52
g5
I40
tp102
I73
s(g9
S'who'
S'says'
p103
tp104
I74
s(g7
I1
I2
tp105
I75
s(g16
I4
tp106
I76
s(g61
S'says'
tp107
I77
s(g9
S'"it'
S'smiling'
tp108
I78
s(g22
g87
S'says.'
tp109
I80
s(g22
S'happen.<p>'
S'carpenter.<p>'
tp110
I81
s(g20
I1
I3
tp111
I82
s(g18
S'now,'
S'and'
tp112
I2923
s(g22
S'man"'
S'works'
tp113
I83
s(g33
I53
tp114
I84
s(g61
g35
tp115
I432
s(g52
g5
I108
tp116
I3136
s(g7
I19
I5
tp117
I86
s(g22
S'says'
S'gone.<p>'
tp118
I1916
s(g7
I12
I4
tp119
I88
s(g9
S'refueling'
S'that'
tp120
I89
s(S'LEN-StackSpan1-StackSpan2'
p121
I37
I9
tp122
I90
s(g41
S'dwight,'
tp123
I91
s(g14
g5
I76
tp124
I92
s(g22
S'off,'
S'still,'
p125
tp126
I93
s(g63
S'involving'
S'that'
tp127
I94
s(g20
I2
I7
tp128
I95
s(g9
S'as'
S'puts'
tp129
I96
s(g24
S'land'
S'kidder,'
tp130
I97
s(g46
g125
tp131
I98
s(g22
g96
S'--'
tp132
I99
s(g63
S'through'
S'wall'
tp133
I100
s(g20
I130
I17
tp134
I101
s(g24
S'in?'
S'question,'
tp135
I3245
s(g121
I38
I5
tp136
I103
s(g24
S'future.'
S'directors,'
tp137
I104
s(g22
S'late.'
S'night;'
tp138
I105
s(g18
S'the'
g87
tp139
I106
s(g14
g5
I58
tp140
I107
s(g16
I11
tp141
I109
s(g43
S'world'
tp142
I110
s(g66
I17
tp143
I111
s(g41
S'alternative"'
tp144
I112
s(g43
S'inc.'
tp145
I113
s(g61
S'succeed.'
tp146
I114
s(g9
S'through'
S'gary'
tp147
I115
s(g63
S'will'
S'the'
tp148
I116
s(g52
g5
I63
tp149
I117
s(g24
S'goals'
S'unit,'
tp150
I118
s(g22
S'point."'
S'hum."<p>'
tp151
I119
s(g33
I44
tp152
I120
s(g18
S'kidder,'
S'racked'
tp153
I121
s(g33
I1
tp154
I1397
s(g121
I13
I4
tp155
I2566
s(g63
S'except'
S'in'
tp156
I3146
s(g22
S'trading.<p>'
S'future.'
tp157
I124
s(g11
g35
S'carpenter,'
tp158
I125
s(g33
I22
tp159
I2933
s(g7
I132
I7
tp160
I126
s(g22
S'man"'
S'adding'
p161
tp162
I127
s(g20
I14
I2
tp163
I128
s(g22
S'--'
S'cathcart'
tp164
I129
s(g22
S'january.'
S'months.'
tp165
I130
s(g22
S'june.<p>'
S'late.'
tp166
I131
s(g121
I27
I10
tp167
I1922
s(g20
I53
I6
tp168
I132
s(g24
S'theme.'
S'ideas'
tp169
I3603
s(g27
S'i'
tp170
I133
s(g14
g5
I85
tp171
I134
s(g7
I27
I10
tp172
I3148
s(g24
S'says.'
S'flow."<p>'
tp173
I136
s(g50
I7
tp174
I137
s(g20
I9
I13
tp175
I138
s(g33
I148
tp176
I140
s(g7
I17
I12
tp177
I141
s(g46
S'--'
tp178
I142
s(g43
S'late.'
tp179
I143
s(g9
S'though'
S'"we\'ve'
tp180
I144
s(g52
g5
I147
tp181
I145
s(g22
S'carpenter.<p>'
S'investors.<p>'
tp182
I146
s(g24
S'--'
S'kidder,'
tp183
I2539
s(g4
g56
I33
tp184
I147
s(g46
S'instead'
tp185
I148
s(g14
g5
I3
tp186
I149
s(g33
I35
tp187
I150
s(g18
S'kidder'
S'that'
tp188
I2651
s(g18
S'they'
S'possibly'
tp189
I152
s(g11
S'period,'
S'co.'
tp190
I153
s(g7
I180
I33
tp191
I154
s(g41
S'hum."<p>'
tp192
I155
s(g121
I23
I215
tp193
I157
s(g52
g5
I70
tp194
I158
s(S'Begin-Word-QueueSpan1'
p195
S'everywhere,'
tp196
I159
s(g7
I9
I17
tp197
I160
s(g41
S'course,'
tp198
I968
s(g22
S'works'
S'cathcart'
tp199
I1291
s(g61
S'strategy,'
tp200
I163
s(g61
S'control,'
tp201
I164
s(g22
S'says.<p>'
S'trading.<p>'
tp202
I165
s(g24
S'bankers,'
S'caution'
tp203
I166
s(g61
S'attack,'
tp204
I168
s(g20
I15
I1
tp205
I169
s(g41
S'finance.'
tp206
I170
s(g9
S'will'
S'the'
tp207
I3154
s(g24
g87
S'flow."<p>'
tp208
I172
s(S'DIST-StackSpan1-QueueSpan1'
p209
I6
tp210
I173
s(g7
I24
I8
tp211
I174
s(g9
S'that'
S'mr.'
tp212
I2215
s(g50
I8
tp213
I176
s(g52
g5
I8
tp214
I1057
s(g4
g5
I145
tp215
I178
s(g18
S'when'
S'retires'
tp216
I179
s(g33
I139
tp217
I180
s(g14
g56
I12
tp218
I181
s(g9
S'refueling'
S'mr.'
tp219
I182
s(g18
S'to'
S'mr.'
tp220
I183
s(g63
S"it's"
S'through'
tp221
I184
s(g50
I505
tp222
I185
s(g11
S'late.'
S'harder'
tp223
I186
s(g20
I22
I12
tp224
I187
s(g121
I7
I26
tp225
I188
s(g121
I4
I2
tp226
I189
s(g33
I26
tp227
I190
s(g18
S'mr.'
S'not'
tp228
I191
s(g63
S'gary'
S'through'
tp229
I192
s(g41
S'years'
tp230
I193
s(g18
S'was'
S'the'
tp231
I1297
s(g22
S'speculation'
S'co.,'
tp232
I2547
s(g4
g5
I35
tp233
I195
s(g22
S'powerhouse.'
S'co.'
tp234
I196
s(g121
I54
I1052
tp235
I197
s(g4
g56
I10
tp236
I199
s(g22
S'in'
S'man"'
tp237
I200
s(g14
g5
I108
tp238
I201
s(g63
S'according'
S'through'
tp239
I203
s(g24
S'study.'
S'course,'
tp240
I204
s(g7
I368
I5
tp241
I206
s(g22
S'says.'
S'deal,'
tp242
I208
s(g52
g5
I109
tp243
I209
s(g7
I9
I6
tp244
I210
s(g195
S'they'
tp245
I211
s(g121
I7
I7
tp246
I3402
s(g209
I31
tp247
I212
s(g4
g5
I117
tp248
I213
s(g50
I17
tp249
I215
s(g24
S'says'
S'years,'
tp250
I216
s(g7
I34
I2
tp251
I217
s(g24
S'yet,'
p252
S'peabody."'
tp253
I218
s(g11
S'sheehan.<p>'
S'bankers,'
tp254
I219
s(g22
g103
S'forces,"'
tp255
I220
s(g22
S'year.<p>'
S'cutting.'
tp256
I887
s(g7
I72
I20
tp257
I222
s(g27
g125
tp258
I223
s(g41
S'instruments'
tp259
I224
s(g41
S'bickered.'
tp260
I225
s(g121
I8
I92
tp261
I226
s(g195
S'smiling'
tp262
I2284
s(g61
S'harder'
tp263
I228
s(g27
S'it'
tp264
I229
s(g52
g5
I31
tp265
I230
s(g9
S'than'
S'says'
tp266
I231
s(g20
I51
I4
tp267
I232
s(g63
S'according'
g87
tp268
I233
s(g33
I17
tp269
I234
s(g14
g56
I27
tp270
I235
s(g24
S'notes'
S'trading.<p>'
tp271
I236
s(g14
g5
I136
tp272
I237
s(g22
S'times,"'
S'one'
tp273
I239
s(g22
S'says.'
S'kidder.'
tp274
I240
s(g18
S'so'
S'"the'
tp275
I241
s(g11
S'attack,'
S'investors.<p>'
tp276
I242
s(g46
S'as'
tp277
I244
s(g121
I8
I10
tp278
I245
s(g43
S'forces,"'
tp279
I247
s(g61
S'meltdown,'
tp280
I248
s(g121
I40
I7
tp281
I249
s(g14
g5
I117
tp282
I250
s(g18
S'as'
S'however,'
tp283
I251
s(g209
I16
tp284
I252
s(g61
S'edition.<p>'
tp285
I253
s(g4
g5
I2
tp286
I3227
s(g50
I26
tp287
I254
s(g121
I15
I32
tp288
I256
s(g22
S'1990.'
S'instruments'
tp289
I257
s(g24
S'june.<p>'
S'world'
tp290
I258
s(g7
I8
I5
tp291
I259
s(g7
I215
I6
tp292
I260
s(g24
S'says.<p>'
S'skeptical.'
tp293
I3514
s(g195
S"it's"
tp294
I261
s(g22
S'dwight,'
S'director.'
tp295
I262
s(g46
S'in'
tp296
I263
s(g9
S'according'
S'all'
tp297
I264
s(g24
S'gone.<p>'
S'skeptical.'
tp298
I265
s(g22
S'stress'
g125
tp299
I266
s(g121
I48
I20
tp300
I267
s(g14
g5
I35
tp301
I268
s(g24
S'time'
S'that.'
tp302
I271
s(g33
I8
tp303
I272
s(g22
S'kidder'
S'says.<p>'
tp304
I3664
s(g52
g5
I38
tp305
I276
s(g11
S'defections.'
S'ago.'
tp306
I277
s(g52
g5
I30
tp307
I3150
s(g121
I33
I5
tp308
I278
s(g43
S'goals'
tp309
I279
s(g24
S'question,'
S'result:'
tp310
I280
s(g9
S'who'
S'when'
tp311
I281
s(g18
S'theoretically,'
S'that'
tp312
I282
s(g61
S'executive'
tp313
I283
s(g24
S'out.<p>'
g125
tp314
I3697
s(g20
I14
I11
tp315
I284
s(g24
S'say'
S'results.<p>'
tp316
I285
s(g61
S'nantucket."<p>'
tp317
I286
s(g24
g125
S'stress'
tp318
I287
s(g22
S'months.'
S'investors.<p>'
tp319
I288
s(g22
S'trading.<p>'
S'inc.'
tp320
I289
s(g121
I8
I19
tp321
I290
s(g22
S'him.'
g161
tp322
I292
s(g11
S'june.<p>'
S'theme.'
tp323
I293
s(g24
g35
S'it:'
tp324
I294
s(g9
S'mr.'
S'mr.'
tp325
I295
s(g33
I112
tp326
I296
s(g14
g5
I94
tp327
I297
s(g18
S'without'
S'and'
tp328
I298
s(g22
S'bank.<p>'
S'plans.'
tp329
I299
s(g18
S'mr.'
S'"we\'ve'
tp330
I300
s(g27
S'everywhere,'
tp331
I302
s(g43
S'happen.<p>'
tp332
I303
s(g20
I9
I4
tp333
I958
s(g63
S'i'
S'"it'
tp334
I305
s(g63
S'and'
S'and'
tp335
I306
s(g9
S'racked'
S'its'
tp336
I307
s(g33
I15
tp337
I308
s(g24
S'business'
S'trading;'
tp338
I309
s(g22
S'control,'
S'that'
p339
tp340
I310
s(g24
S'trading.<p>'
S'tools'
tp341
I311
s(g52
g5
I154
tp342
I312
s(g4
g5
I3
tp343
I313
s(g9
S'"we'
S'everywhere,'
tp344
I314
s(g61
S'co.'
tp345
I315
s(g14
g5
I12
tp346
I316
s(g9
S'by'
S'wall'
tp347
I317
s(g9
S'in'
S'except'
tp348
I318
s(g22
S'does'
S'business'
tp349
I319
s(g20
I10
I6
tp350
I320
s(g11
S'months.'
S'operations.'
tp351
I834
s(g43
S'result:'
tp352
I321
s(g22
S'years,'
S'business."'
tp353
I322
s(g121
I14
I3
tp354
I323
s(g52
g5
I77
tp355
I324
s(g9
S'however,'
S'kidder'
tp356
I1847
s(g61
S'broadly'
tp357
I326
s(g43
S'future.'
tp358
I327
s(g46
S'gary'
tp359
I328
s(g7
I54
I1
tp360
I329
s(g41
S'powerhouse.'
tp361
I1956
s(g18
S'only'
S'by'
tp362
I331
s(g41
S'night;'
tp363
I332
s(g121
I12
I25
tp364
I3177
s(g18
S'mr.'
S'instead'
tp365
I334
s(g43
S'say'
tp366
I335
s(g7
I4
I16
tp367
I336
s(g22
S'investors.<p>'
S'one."<p>'
tp368
I337
s(g22
S'speculation.'
S'entirely.'
tp369
I338
s(g121
I9
I12
tp370
I339
s(g9
S'mr.'
S'wall'
tp371
I340
s(S'LEN-StackSpan2'
p372
I13
tp373
I341
s(g4
g5
I152
tp374
I2248
s(g41
S'operations.'
tp375
I343
s(g9
S'spencer'
S'mr.'
tp376
I344
s(g61
S'forces,"'
tp377
I345
s(g11
S'assets.'
S'carpenter.<p>'
tp378
I346
s(g24
S'says'
S'control,'
tp379
I3472
s(g11
S'caution'
S'paper,'
tp380
I347
s(g9
S'again'
S'puts'
tp381
I348
s(g18
S'kidder,'
S'through'
tp382
I349
s(g9
S'the'
S'never'
tp383
I777
s(g41
S'bankers'
tp384
I3167
s(g41
g35
tp385
I351
s(g7
I10
I3
tp386
I1027
s(g41
S'point.'
tp387
I353
s(g50
I188
tp388
I354
s(g9
S'--'
S"it's"
tp389
I2060
s(g18
S'"we'
S'everywhere,'
tp390
I2877
s(g9
S'with'
S'kidder'
tp391
I355
s(g195
S'there'
tp392
I356
s(g14
g5
I21
tp393
I856
s(g27
S'and'
tp394
I358
s(g20
I11
I5
tp395
I359
s(g61
S'says,'
tp396
I360
s(g50
I45
tp397
I361
s(g24
g125
S'opportunity'
tp398
I362
s(g52
g5
I84
tp399
I363
s(g33
I110
tp400
I151
s(g22
S'inc.'
S'firm,'
tp401
I365
s(g11
S'flow."<p>'
S'in?'
tp402
I366
s(S'LEN-QueueSpan1'
p403
I22
tp404
I367
s(g372
I20
tp405
I368
s(g22
S'assets.'
S'ge.'
tp406
I369
s(g7
I34
I9
tp407
I370
s(g24
S'back.<p>'
S'gone.<p>'
tp408
I371
s(g20
I12
I9
tp409
I372
s(g20
I18
I8
tp410
I373
s(g20
I25
I1
tp411
I374
s(g7
I20
I11
tp412
I375
s(g24
S'kidder.'
S'deal,'
tp413
I1243
s(g24
S'peabody."'
S'says,'
tp414
I377
s(g14
g56
I18
tp415
I378
s(g24
S'plans.'
S'skeptical.'
tp416
I2579
s(g50
I132
tp417
I380
s(g11
S'ago.'
S'gone.<p>'
tp418
I381
s(g50
I69
tp419
I382
s(g61
S'bank.<p>'
tp420
I383
s(g27
S'gary'
tp421
I384
s(g22
S'powerhouse.'
S'1980s,'
tp422
I385
s(g9
S'by'
S'retires'
tp423
I386
s(g50
I54
tp424
I387
s(g22
S'point.'
S'says'
tp425
I388
s(g22
S'him.'
S'kidder,'
tp426
I389
s(g9
S'the'
S'involving'
tp427
I390
s(g4
g56
I4
tp428
I391
s(g9
S'mr.'
S'refueling'
tp429
I392
s(g41
S'defections.'
tp430
I3187
s(g24
S'says.<p>'
S'carpenter,'
tp431
I395
s(g63
S'in'
S'its'
tp432
I396
s(g195
S'the'
tp433
I3188
s(g20
I8
I4
tp434
I397
s(g372
I31
tp435
I398
s(g46
S'will'
tp436
I399
s(g121
I12
I1
tp437
I400
s(g52
g5
I123
tp438
I401
s(g121
I19
I24
tp439
I402
s(g41
S'says'
tp440
I403
s(g9
S'now,'
S"it's"
tp441
I404
s(g61
S'inc.'
tp442
I405
s(g14
g5
I44
tp443
I406
s(g372
I8
tp444
I1971
s(g18
S'kidder,'
S'there'
tp445
I408
s(g7
I26
I5
tp446
I411
s(g24
S'back.<p>'
S'skeptical.'
tp447
I412
s(g52
g5
I45
tp448
I413
s(g24
S'co.,'
S'speculation.'
tp449
I414
s(g24
S'investors.<p>'
S'months.'
tp450
I415
s(g24
S'point.'
S'kidder,'
tp451
I416
s(g24
S'in'
S'home,'
tp452
I417
s(g121
I33
I12
tp453
I418
s(g41
S'cutting.'
tp454
I419
s(g4
g5
I64
tp455
I3272
s(g50
I63
tp456
I420
s(g14
g5
I154
tp457
I421
s(g22
S'sheehan.<p>'
S'investor,"'
tp458
I422
s(g33
I92
tp459
I423
s(g24
S'cutting.'
S'executive'
tp460
I3567
s(g22
S'bankers,'
S'sheehan.<p>'
tp461
I424
s(g403
I8
tp462
I425
s(g372
I38
tp463
I426
s(g121
I684
I368
tp464
I2170
s(g11
S'relationship,"'
S'carpenter.<p>'
tp465
I427
s(g18
S'so'
S'kidder'
tp466
I428
s(g27
S'--'
tp467
I429
s(g14
g5
I71
tp468
I430
s(g20
I2
I2
tp469
I433
s(g121
I6
I7
tp470
I434
s(g121
I13
I6
tp471
I436
s(g9
S'wall'
S'mr.'
tp472
I437
s(g11
S'edition.<p>'
S'instruments"'
tp473
I1967
s(g61
S'investor,"'
tp474
I438
s(g4
g5
I10
tp475
I439
s(g20
I10
I12
tp476
I3370
s(g14
g5
I53
tp477
I441
s(g18
S'without'
S'a'
tp478
I442
s(g27
S'by'
tp479
I443
s(g4
g5
I132
tp480
I444
s(g20
I10
I15
tp481
I445
s(g63
S'"i\'ve'
S'by'
tp482
I446
s(g52
g5
I52
tp483
I447
s(g24
S'firm,'
S'say'
tp484
I448
s(g33
I83
tp485
I449
s(g63
S'ending'
S'will'
tp486
I450
s(g41
S'year,'
tp487
I451
s(g27
S'as'
tp488
I452
s(g403
I3
tp489
I453
s(g121
I11
I14
tp490
I3601
s(g372
I33
tp491
I454
s(g22
S'megargel,'
g87
tp492
I455
s(g22
S'happen.<p>'
S'nantucket."<p>'
tp493
I456
s(g24
S'people.<p>'
g339
tp494
I457
s(g372
I27
tp495
I2567
s(g9
S'as'
S'kidder'
tp496
I459
s(g11
S'year,'
S'says,'
tp497
I460
s(g121
I9
I3
tp498
I364
s(g50
I290
tp499
I462
s(g41
S'deal,'
tp500
I463
s(g22
S'trading.<p>'
S'speculation.'
tp501
I2586
s(g33
I25
tp502
I3387
s(g121
I4
I9
tp503
I465
s(g18
S'to'
S'kidder'
tp504
I466
s(g14
g5
I80
tp505
I467
s(g195
S'who'
tp506
I468
s(g61
S'tools'
tp507
I469
s(g22
S'ago.'
S'defections.'
tp508
I470
s(g11
S'carpenter,'
S'peabody."'
tp509
I471
s(g16
I41
tp510
I472
s(g43
S'man"'
tp511
I473
s(g61
S'1980s,'
tp512
I474
s(g121
I10
I7
tp513
I475
s(g9
S'its'
S'in'
tp514
I476
s(g43
S'trading;'
tp515
I477
s(g9
S"it's"
S'by'
tp516
I478
s(g121
I9
I1
tp517
I2590
s(g4
g5
I49
tp518
I480
s(g14
g5
I30
tp519
I481
s(g33
I74
tp520
I482
s(g20
I93
I9
tp521
I483
s(g9
S'in'
S'it'
tp522
I484
s(g9
S'as'
S'"we\'re'
tp523
I485
s(g20
I11
I12
tp524
I486
s(g9
S'a'
S'about'
tp525
I487
s(g121
I7
I58
tp526
I488
s(g52
g5
I91
tp527
I489
s(g9
S'only'
S'wall'
tp528
I490
s(g9
S'"the'
S'that'
tp529
I491
s(g11
S'bankers'
S'one."<p>'
tp530
I492
s(g4
g5
I67
tp531
I493
s(g46
S'refueling'
tp532
I85
s(g20
I75
I6
tp533
I494
s(g11
S'alternative"'
S'deal,'
tp534
I495
s(g11
S'one'
S'times,"'
tp535
I1695
s(g16
I129
tp536
I497
s(g9
S'however,'
S'that'
tp537
I499
s(g24
S'succeed.'
S'profit,'
tp538
I500
s(g63
S'now,'
S'only'
tp539
I501
s(g121
I3
I9
tp540
I502
s(g9
S'i'
S'he'
tp541
I503
s(g22
S'speculation.'
S'in?'
tp542
I504
s(g121
I8
I1
tp543
I507
s(g52
g5
I13
tp544
I508
s(g16
I16
tp545
I509
s(g14
g56
I9
tp546
I510
s(g41
S'speculation'
tp547
I511
s(g41
S'late.'
tp548
I512
s(g22
S'co.'
S'period,'
tp549
I513
s(g195
S'to'
tp550
I514
s(g14
g5
I90
tp551
I3543
s(g24
S'works'
S'in'
tp552
I515
s(g18
S'the'
S'to'
tp553
I598
s(g121
I4
I5
tp554
I518
s(g121
I11
I4
tp555
I520
s(g121
I38
I54
tp556
I521
s(g372
I51
tp557
I522
s(g24
S'nantucket."<p>'
g87
tp558
I523
s(g14
g5
I103
tp559
I524
s(g18
S'theoretically,'
S'however,'
tp560
I525
s(g9
S'that'
S'a'
tp561
I526
s(g18
S'the'
S'smiling'
tp562
I1263
s(g50
I15
tp563
I528
sS'More-Elem-Stack'
p564
I529
s(g41
S'sheehan.<p>'
tp565
I2946
s(g20
I37
I5
tp566
I530
s(g52
g5
I98
tp567
I531
s(g43
S'out.<p>'
tp568
I532
s(g121
I18
I9
tp569
I533
s(g41
S'one'
tp570
I534
s(g9
S'"we\'ve'
S'the'
tp571
I535
s(g16
I23
tp572
I536
s(g195
S'though'
tp573
I537
s(g18
S'in'
S'but'
tp574
I2605
s(g209
I81
tp575
I2065
s(g63
S'--'
S'"we\'ve'
tp576
I540
s(g9
S'they'
S'to'
tp577
I541
s(g52
g5
I20
tp578
I542
s(g7
I1
I14
tp579
I543
s(g33
I56
tp580
I544
s(g43
S'nantucket."<p>'
tp581
I545
s(g7
I33
I3
tp582
I546
s(g7
I1
I13
tp583
I3617
s(g22
S'theme.'
S'june.<p>'
tp584
I1663
s(g9
S'so'
g252
tp585
I549
s(g20
I39
I6
tp586
I3412
s(g46
S'everywhere,'
tp587
I550
s(g20
I18
I5
tp588
I2189
s(g121
I8
I5
tp589
I552
s(g50
I130
tp590
I553
s(g63
S'which'
S'"we\'ve'
tp591
I2609
s(g9
S'the'
S'mr.'
tp592
I555
s(g41
S'trimmed'
tp593
I556
s(g9
S'only'
S'now,'
tp594
I557
s(g18
S'the'
S'the'
tp595
I558
s(g14
g5
I112
tp596
I559
s(g27
S'with'
tp597
I560
s(g41
S'binge'
tp598
I561
s(g41
S'up,'
tp599
I562
s(g18
S'only'
S'its'
tp600
I563
s(g20
I9
I18
tp601
I564
s(g11
S'kidder.'
S'trading.<p>'
tp602
I565
s(g22
S'past,"'
S'late.'
tp603
I3223
s(g11
S'past,"'
S'june.<p>'
tp604
I566
s(g9
S'mr.'
S'who'
tp605
I567
s(g121
I12
I19
tp606
I568
s(g66
I6
tp607
I569
s(g18
S'"i\'ve'
S'and'
tp608
I570
s(g18
S'so'
S'the'
tp609
I571
s(g7
I215
I1
tp610
I572
s(g22
S'time'
S'ge,'
tp611
I573
s(g52
g5
I136
tp612
I3347
s(g41
S'succeed.'
tp613
I575
s(g121
I51
I9
tp614
I576
s(g43
S'caution'
tp615
I577
s(g14
g5
I62
tp616
I578
s(g33
I63
tp617
I579
s(g43
S'cutting.'
tp618
I580
s(g24
S'history.'
S'binge'
tp619
I581
s(g372
I69
tp620
I582
s(g9
S'who'
S'in'
tp621
I583
s(g43
S'-rb-'
tp622
I584
s(g52
g5
I59
tp623
I585
s(g18
S'by'
S'possibly'
tp624
I586
s(g209
I129
tp625
I587
s(g18
S'the'
S'in'
tp626
I588
s(g24
S'alternative"'
S'says.'
tp627
I1658
s(g20
I162
I8
tp628
I590
s(g11
S'owns.'
S'kidder,'
tp629
I591
s(g18
S'and'
S'mr.'
tp630
I1999
s(g372
I180
tp631
I593
s(g7
I132
I11
tp632
I594
s(g18
S'smiling'
g35
tp633
I595
s(g22
S'co.'
S'skeptical.'
tp634
I3228
s(g24
S'back.<p>'
S'says'
tp635
I597
s(g24
S'kidder'
S'says'
tp636
I599
s(g7
I25
I7
tp637
I600
s(g121
I22
I34
tp638
I602
s(g22
S'one."<p>'
S'powerhouse.'
tp639
I2095
s(g43
S'trimmed'
tp640
I2616
s(g9
S'mr.'
S'smiling'
tp641
I604
s(g52
g5
I140
tp642
I605
s(g16
I5
tp643
I606
s(g22
S'june.<p>'
S'past,"'
tp644
I608
s(g41
S'bankers,'
tp645
I175
s(g18
S'only'
S'wall'
tp646
I610
s(g11
S'bank.<p>'
S'skeptical.'
tp647
I611
s(g20
I9
I9
tp648
I612
s(g61
S'seven'
tp649
I613
s(g33
I54
tp650
I614
s(g18
S'mr.'
S'was'
tp651
I615
s(g18
S'kidder,'
S'he'
tp652
I616
s(g24
S'ge,'
S'that'
tp653
I617
s(g24
S'up,'
g252
tp654
I3389
s(g61
S'january.'
tp655
I618
s(g195
S'a'
tp656
I619
s(g22
S'guarantees,'
S'say'
tp657
I620
s(g43
S'says,'
tp658
I621
s(g11
S'night;'
S'late.'
tp659
I622
s(g43
S'june.<p>'
tp660
I623
s(g7
I9
I12
tp661
I1379
s(g14
g5
I7
tp662
I625
s(g22
S'1986'
S'ge.'
tp663
I626
s(g61
S'night;'
tp664
I627
s(g41
S'ge,'
tp665
I628
s(g63
S'that'
S'without'
tp666
I629
s(g61
S'past,"'
tp667
I630
s(g52
g5
I66
tp668
I631
s(g7
I22
I3
tp669
I632
s(g11
S'instruments'
S'years'
tp670
I634
s(g41
S'deals'
tp671
I722
s(g4
g5
I74
tp672
I636
s(g24
S'gone.<p>'
S'point.'
tp673
I2623
s(g18
S'the'
S'"we\'ve'
tp674
I1354
s(g61
g125
tp675
I639
s(g22
S'carpenter.<p>'
S'assets.'
tp676
I640
s(g7
I9
I19
tp677
I3257
s(g16
I12
tp678
I641
s(g46
S'theoretically,'
tp679
I1270
s(g195
S'it'
tp680
I643
s(g41
S'years,'
tp681
I644
s(g22
S'plans.'
S'says.<p>'
tp682
I645
s(g18
S'so'
S'says'
tp683
I646
s(g24
S'bickered.'
S'year,'
tp684
I647
s(g20
I132
I2
tp685
I648
s(g46
S"it's"
tp686
I649
s(g121
I13
I368
tp687
I650
s(g43
S'skeptical.'
tp688
I651
s(g33
I45
tp689
I652
s(g66
I129
tp690
I205
s(g22
S'trading.<p>'
S'kidder.'
tp691
I654
s(g18
S'and'
S'he'
tp692
I655
s(g63
S'that'
S'however,'
tp693
I656
s(g61
S'time'
tp694
I657
sS'Empty-Stack'
p695
I658
s(g43
g35
tp696
I659
s(g121
I11
I15
tp697
I660
s(g11
S'years,'
S'says,'
tp698
I661
s(g121
I25
I69
tp699
I662
s(g46
S'"we\'ve'
tp700
I663
s(g4
g5
I47
tp701
I664
s(g18
S'theoretically,'
S'kidder'
tp702
I665
s(g7
I48
I14
tp703
I666
s(g18
S'that'
S'the'
tp704
I1389
s(g14
g5
I16
tp705
I668
s(g41
S'future.'
tp706
I669
s(g209
I12
tp707
I670
s(g24
S'says.'
S'megargel,'
tp708
I671
s(g24
S'carpenter.<p>'
S'up,'
tp709
I2630
s(g22
S'firm,'
S'happen.<p>'
tp710
I673
s(g50
I6
tp711
I674
s(g11
S'harder.<p>'
S'night;'
tp712
I675
s(g7
I368
I1
tp713
I676
s(g41
S'people.<p>'
tp714
I3025
s(g52
g5
I105
tp715
I677
s(g41
S'say'
tp716
I678
s(S'DIST-FROM-START-QueueSpan1'
p717
I1
tp718
I679
s(g41
S'harder'
tp719
I680
s(g33
I36
tp720
I681
s(g22
S'point."'
S'results.<p>'
tp721
I682
s(g63
S'when'
S'one'
tp722
I3242
s(g41
S'out.<p>'
tp723
I684
s(g121
I3
I27
tp724
I685
s(g24
S'speculation.'
S'firm,'
tp725
I431
s(g63
S'the'
S'the'
tp726
I687
s(g27
S'instead'
tp727
I689
s(g52
g5
I27
tp728
I690
s(g195
S'you'
tp729
I691
s(g14
g56
I31
tp730
I693
s(g52
g5
I34
tp731
I735
s(g20
I2
I10
tp732
I3218
s(g7
I33
I8
tp733
I695
s(g14
g5
I140
tp734
I696
s(g27
S'kidder'
tp735
I697
s(g20
I20
I17
tp736
I698
s(g61
S'instruments'
tp737
I699
s(g61
S'guarantees,'
tp738
I700
s(g209
I5
tp739
I701
s(g20
I33
I9
tp740
I702
s(g121
I22
I66
tp741
I703
s(g7
I13
I9
tp742
I704
s(g27
S'the'
tp743
I705
s(g18
S'"the'
S'he'
tp744
I1396
s(g22
S'plans.'
S'kidder'
tp745
I707
s(g33
I140
tp746
I708
s(g43
S'stress'
tp747
I547
s(g121
I68
I25
tp748
I710
s(g20
I5
I8
tp749
I711
s(g24
S'point.'
S'kidder'
tp750
I712
s(g121
I5
I180
tp751
I713
s(g22
S'operations.'
S'months.'
tp752
I714
s(g63
S'"we\'ve'
S'yet,'
tp753
I2014
s(g33
I27
tp754
I716
s(g52
g5
I112
tp755
I717
s(g18
S'"it'
S'he'
tp756
I718
s(g7
I215
I10
tp757
I719
s(g18
S'only'
S'now,'
tp758
I720
s(g121
I44
I25
tp759
I721
s(g9
S'kidder'
S'mr.'
tp760
I635
s(g14
g5
I39
tp761
I723
s(g195
S'turning'
tp762
I724
s(g20
I6
I2
tp763
I725
s(g43
S'bankers,'
tp764
I726
s(g20
I13
I11
tp765
I727
s(g50
I16
tp766
I730
s(g195
g252
tp767
I731
s(g9
S'one'
S'so'
tp768
I732
s(g41
S'year.<p>'
tp769
I733
s(g46
S'now,'
tp770
I3500
s(g16
I82
tp771
I1333
s(g61
S'speculation'
tp772
I736
s(g63
S'never'
S'the'
tp773
I409
s(g43
S'sheehan.<p>'
tp774
I738
s(g7
I368
I12
tp775
I2092
s(g46
S'there'
tp776
I739
s(g46
S'so'
tp777
I740
s(g24
S'one."<p>'
S'cutting.'
tp778
I741
s(g7
I55
I2
tp779
I742
s(g18
S'its'
S'mr.'
tp780
I743
s(g7
I32
I11
tp781
I744
s(g14
g5
I149
tp782
I745
s(g22
S'kidder.'
S'opportunity'
tp783
I746
s(g24
S'people.<p>'
S'far,'
tp784
I747
s(g22
S'investors.<p>'
S'cutting.'
tp785
I748
s(g33
I131
tp786
I749
s(g61
S'ge.'
tp787
I750
s(g20
I27
I3
tp788
I751
s(g22
S'kidder.'
S'trading;'
tp789
I752
s(g121
I188
I180
tp790
I753
s(g9
S'the'
S'and'
tp791
I755
s(g121
I37
I19
tp792
I756
s(g33
I18
tp793
I757
s(g61
S'man"'
tp794
I758
s(g14
g5
I66
tp795
I759
s(g22
S'year,'
S'peabody."'
tp796
I760
s(g43
S'works'
tp797
I761
s(g20
I2
I9
tp798
I762
s(g43
S'succeed.'
tp799
I763
s(g22
S'owns.'
S'--'
tp800
I764
s(g22
S'man"'
S'crack'
tp801
I765
s(g11
S'course,'
S'finance.'
tp802
I766
s(g18
S'kidder'
S'however,'
tp803
I767
s(g14
g56
I15
tp804
I2644
s(g7
I18
I2
tp805
I769
s(g52
g5
I134
tp806
I770
s(g41
S'1990.'
tp807
I771
s(g16
I89
tp808
I772
s(g14
g5
I48
tp809
I773
s(g33
I88
tp810
I2021
s(g20
I7
I1
tp811
I776
s(g50
I25
tp812
I778
s(g9
S'mr.'
S'he'
tp813
I2022
s(g9
S'says'
S'everywhere,'
tp814
I779
s(g52
g5
I73
tp815
I976
s(g22
S'land'
S'home,'
tp816
I782
s(g24
S'january.'
S'people.<p>'
tp817
I784
s(g4
g5
I81
tp818
I785
s(g11
S'kidder.'
S'seven'
tp819
I786
s(g22
S'says'
S'trading.<p>'
tp820
I787
s(g9
S'but'
S'who'
tp821
I788
s(g9
S'kidder'
S'however,'
tp822
I789
s(g22
S'finance.'
S'trading.<p>'
tp823
I900
s(g46
S'"i\'ve'
tp824
I791
s(g63
S'its'
S'in'
tp825
I3377
s(g121
I14
I368
tp826
I793
s(g22
S'bank.<p>'
S'says.<p>'
tp827
I794
s(g9
S'that'
S'not'
tp828
I3256
s(g43
S'study.'
tp829
I796
s(g121
I9
I8
tp830
I797
s(g63
S'a'
S'without'
tp831
I1071
s(g63
S'however,'
S'theoretically,'
tp832
I799
s(g7
I56
I2
tp833
I800
s(g24
S'kidder,'
S'crack'
tp834
I801
s(g24
S'megargel,'
S'in?'
tp835
I1090
s(g22
S'sheehan.<p>'
S'finance.'
tp836
I804
s(g195
S'kidder'
tp837
I805
s(g61
S'entirely.'
tp838
I806
s(g27
S'could'
tp839
I807
s(g16
I64
tp840
I809
s(g11
S'trimmed'
S'people.<p>'
tp841
I3162
s(g209
I40
tp842
I810
s(g9
S'more'
S'the'
tp843
I811
s(g9
S'as'
S'that'
tp844
I1158
s(g7
I10
I7
tp845
I813
s(g41
S'harder.<p>'
tp846
I1161
s(g50
I34
tp847
I815
s(g22
S'future.'
S'results.<p>'
tp848
I816
s(g7
I7
I8
tp849
I817
s(g52
g5
I7
tp850
I3328
s(g41
S'works'
tp851
I818
s(g33
I113
tp852
I819
s(g14
g5
I25
tp853
I1185
s(g9
S'"it'
S'he'
tp854
I821
s(g11
g161
S'crack'
tp855
I822
s(g22
S'deal,'
S'alternative"'
tp856
I3738
s(g20
I11
I9
tp857
I823
s(g61
S'back.<p>'
tp858
I824
s(g372
I3
tp859
I825
s(g7
I368
I8
tp860
I826
s(g27
S'he'
tp861
I827
s(g24
S'far,'
S'bickered.'
tp862
I828
s(g121
I15
I12
tp863
I829
s(g24
g125
S'night;'
tp864
I830
s(g52
g5
I80
tp865
I1234
s(g121
I5
I1052
tp866
I3548
s(g18
S'one'
S'the'
tp867
I832
s(g43
S'powerhouse.'
tp868
I833
s(g4
g5
I120
tp869
I1259
s(g27
S'ending'
tp870
I835
s(g24
S'trading.<p>'
S'firm,'
tp871
I836
s(g27
S'refueling'
tp872
I2657
s(g41
S'stress'
tp873
I838
s(g63
S'one'
S'mr.'
tp874
I1309
s(g20
I19
I20
tp875
I840
s(g33
I132
tp876
I841
s(g52
g5
I2
tp877
I844
s(g4
g5
I139
tp878
I845
s(g9
S'he'
S'there'
tp879
I848
s(g14
g56
I22
tp880
I1365
s(g9
S'--'
S'retires'
tp881
I850
s(g24
S'results.<p>'
S'future.'
tp882
I851
s(g63
S'that'
S'refueling'
tp883
I852
s(g66
I10
tp884
I2080
s(g50
I43
tp885
I853
s(g9
S'the'
S'so'
tp886
I854
s(g22
S'bank.<p>'
S'gone.<p>'
tp887
I855
s(g9
S'its'
S'mr.'
tp888
I3263
s(g20
I23
I2
tp889
I857
s(g121
I7
I32
tp890
I859
s(g121
I4
I8
tp891
I860
s(g121
I11
I1
tp892
I861
s(g9
S'wall'
S'through'
tp893
I3180
s(g121
I6
I10
tp894
I862
s(g372
I10
tp895
I863
s(g18
S'mr.'
S'one'
tp896
I864
s(g9
S'mainly'
S'its'
tp897
I865
s(g18
S'through'
S'mr.'
tp898
I3317
s(g61
S'far,'
tp899
I1609
s(g33
I7
tp900
I867
s(g14
g56
I64
tp901
I868
s(g14
g5
I98
tp902
I869
s(g11
S'inc.'
S'history.'
tp903
I870
s(g20
I5
I7
tp904
I871
s(g61
S'trimmed'
tp905
I872
s(g9
S'although'
S'in'
tp906
I874
s(g20
I8
I8
tp907
I875
s(g18
g35
S'"we\'re'
tp908
I876
s(g41
S'inc.'
tp909
I877
s(g7
I31
I1
tp910
I878
s(g52
g5
I103
tp911
I879
s(g43
S'speculation'
tp912
I1419
s(g18
g35
S'again'
tp913
I881
s(g61
S'peabody."'
tp914
I882
s(g27
S'kidder,'
tp915
I2665
s(g41
S'1980s,'
tp916
I884
s(g7
I215
I19
tp917
I885
s(g20
I19
I15
tp918
I886
s(g50
I44
tp919
I1582
s(g121
I15
I69
tp920
I888
s(g52
g5
I41
tp921
I889
s(g33
I111
tp922
I890
s(g22
S'investors.<p>'
S'does'
tp923
I891
s(g121
I55
I9
tp924
I894
s(g63
S'--'
S'by'
tp925
I2042
s(g7
I33
I6
tp926
I896
s(g43
S'one."<p>'
tp927
I897
s(g20
I1
I4
tp928
I898
s(g24
S'investors.<p>'
S'forces,"'
tp929
I899
s(g46
g339
tp930
I901
s(g7
I19
I4
tp931
I902
s(g22
S'that.'
S'out.<p>'
tp932
I903
s(g372
I132
tp933
I904
s(g7
I12
I5
tp934
I905
s(g9
S'only'
S'racked'
tp935
I906
s(g61
S'1986'
tp936
I1423
s(g121
I60
I92
tp937
I908
s(g14
g5
I75
tp938
I909
s(g61
S'defections.'
tp939
I910
s(g43
S'kidder.'
tp940
I912
s(g20
I2
I6
tp941
I3157
s(g22
S'one."<p>'
S'said:'
tp942
I914
s(g63
S'says'
g252
tp943
I2046
s(g121
I6
I3
tp944
I918
s(g24
S'kidder,'
S'kidder'
tp945
I919
s(g18
S'with'
S'the'
tp946
I920
s(g121
I12
I22
tp947
I921
s(g22
S'attack,'
S'kidder.'
tp948
I922
s(g22
S'unit,'
S'1986'
tp949
I923
s(g18
S'"we'
S'says'
tp950
I924
s(g43
S'night;'
tp951
I925
s(g18
S'mr.'
g161
tp952
I926
s(g50
I53
tp953
I927
s(g43
S'investor,"'
tp954
I928
s(g24
S'happen.<p>'
S'says'
tp955
I929
s(g9
S'to'
S'kidder'
tp956
I930
s(g14
g5
I57
tp957
I932
s(g9
S'the'
S'"the'
tp958
I933
s(g403
I14
tp959
I934
s(g41
S'says.'
tp960
I935
s(g22
S'january.'
S'operations.'
tp961
I936
s(g52
g5
I48
tp962
I937
s(g24
S'guarantees,'
S'results.<p>'
tp963
I1863
s(g11
S'speculation'
S'entirely.'
tp964
I939
s(g22
S'far,'
S'carpenter.<p>'
tp965
I940
s(g24
S'said:'
S'bankers'
tp966
I941
s(g24
S'camps.'
S'firm,'
tp967
I3470
s(g20
I6
I12
tp968
I1431
s(g22
S'trading.<p>'
S'notes'
tp969
I944
s(g11
S'unit,'
S'assets.'
tp970
I945
s(g41
S'place,'
tp971
I946
s(g7
I132
I4
tp972
I947
s(g7
I93
I6
tp973
I948
s(g20
I14
I5
tp974
I949
s(g61
S'skeptical.'
tp975
I950
s(g24
S'carpenter.<p>'
S'year,'
tp976
I951
s(g14
g5
I42
tp977
I2051
s(g7
I18
I3
tp978
I953
s(g195
S'"we\'re'
tp979
I954
s(g20
I53
I7
tp980
I955
s(g24
S'carpenter,'
S'years,'
tp981
I957
s(g22
S'years'
S'instruments'
tp982
I959
s(g14
g5
I84
tp983
I960
s(g11
S'goals'
S'1986'
tp984
I961
s(g43
S'history.'
tp985
I2517
s(g24
S'skeptical.'
S'profit,'
tp986
I962
s(g18
S'"we\'ve'
S'--'
tp987
I3651
s(g20
I3
I5
tp988
I963
s(g20
I9
I14
tp989
I964
s(g33
I93
tp990
I966
s(g66
I81
tp991
I967
s(g27
S'to'
tp992
I161
s(g24
S'speculation.'
S'study.'
tp993
I969
s(g18
g339
S'one'
tp994
I970
s(g43
S'control,'
tp995
I971
s(g20
I12
I16
tp996
I2053
s(g403
I9
tp997
I973
s(g9
S"it's"
S'says'
tp998
I974
s(g4
g5
I61
tp999
I975
s(g43
S'gone.<p>'
tp1000
I781
s(g43
S'attack,'
tp1001
I977
s(g63
g96
S'a'
tp1002
I978
s(g33
I122
tp1003
I1832
s(g14
g5
I2
tp1004
I980
s(g11
S'says'
S'bank.<p>'
tp1005
I2811
s(g121
I63
I69
tp1006
I981
s(g11
S'said:'
S'succeed.'
tp1007
I982
s(g27
S'though'
tp1008
I983
s(g20
I1052
I5
tp1009
I984
s(g41
S'co.'
tp1010
I985
s(g9
S'mr.'
S'so'
tp1011
I986
s(g20
I37
I7
tp1012
I2191
s(g18
S'so'
S'ge'
tp1013
I3506
s(g52
g5
I71
tp1014
I987
s(g121
I18
I20
tp1015
I988
s(g41
S'world'
tp1016
I990
s(g4
g5
I79
tp1017
I991
s(g52
g5
I60
tp1018
I1435
s(g11
S'executive'
S'forces,"'
tp1019
I993
s(g27
S'ge'
tp1020
I994
s(g9
g339
S'when'
tp1021
I995
s(g16
I35
tp1022
I996
s(g9
S'about'
S'"we'
tp1023
I997
s(g33
I95
tp1024
I2059
s(g22
S'does'
S'year.<p>'
tp1025
I999
s(g18
g87
S'all'
tp1026
I551
s(g63
S'turning'
S'as'
tp1027
I1001
s(g24
S'ge.'
S'carpenter.<p>'
tp1028
I1002
s(g22
S'that'
S'time'
tp1029
I1003
s(g52
g5
I9
tp1030
I1004
s(g7
I14
I11
tp1031
I1005
s(g33
I84
tp1032
I1006
s(g9
S'without'
S'kidder'
tp1033
I1007
s(g27
S'although'
tp1034
I3289
s(g50
I9
tp1035
I3374
s(g52
g5
I47
tp1036
I2061
s(g22
S'goals'
S'ge.'
tp1037
I1011
s(g20
I25
I13
tp1038
I2686
s(g20
I22
I15
tp1039
I1062
s(g20
I18
I9
tp1040
I3290
s(g121
I93
I5
tp1041
I1016
s(g121
I4
I1
tp1042
I2279
s(g121
I13
I56
tp1043
I1018
s(g63
S'"i\'d'
S'gary'
tp1044
I1019
s(g27
S'retires'
tp1045
I2688
s(g24
S'business."'
g35
tp1046
I2305
s(g22
S'happen.<p>'
S'investors.<p>'
tp1047
I1022
s(g4
g56
I9
tp1048
I1023
s(g11
S'deal,'
S'says.'
tp1049
I1024
s(g14
g5
I107
tp1050
I1025
s(g43
S'backfire'
tp1051
I1026
s(g22
S'trading.<p>'
S'study.'
tp1052
I1028
s(g63
S'the'
S'kidder,'
tp1053
I754
s(g16
I42
tp1054
I1030
s(g11
S'cutting.'
S'year,'
tp1055
I1031
s(g27
S'more'
tp1056
I1032
s(g121
I12
I54
tp1057
I1033
s(g52
g5
I110
tp1058
I1034
s(g7
I9
I9
tp1059
I1035
s(g61
S'bankers,'
tp1060
I1036
s(g11
S'january.'
S'trimmed'
tp1061
I1037
s(g9
S'"we\'ve'
g125
tp1062
I1038
s(g43
S'investors.<p>'
tp1063
I1039
s(g33
I75
tp1064
I1041
s(g63
S'to'
S'when'
tp1065
I1043
s(g43
S'bank.<p>'
tp1066
I1044
s(g9
S'through'
S"it's"
tp1067
I1045
s(g7
I27
I8
tp1068
I1046
s(g22
S'owns.'
S'home,'
tp1069
I1047
s(g27
S'"it'
tp1070
I2069
s(g52
g5
I16
tp1071
I1050
s(g24
g161
S'man"'
tp1072
I1051
s(g61
S'one'
tp1073
I1052
s(g43
S'edition.<p>'
tp1074
I1053
s(g52
g5
I3
tp1075
I2481
s(g61
S'year.<p>'
tp1076
I1054
s(g22
S'year,'
S'cutting.'
tp1077
I1055
s(g24
S'succeed.'
S'one."<p>'
tp1078
I1056
s(g24
S'powerhouse.'
S'succeed.'
tp1079
I177
s(g18
S'kidder,'
g103
tp1080
I1058
s(g20
I1
I11
tp1081
I1059
s(g52
g5
I72
tp1082
I3714
s(g18
S'so'
S'without'
tp1083
I1444
s(g11
g125
S'deals'
tp1084
I1063
s(g16
I17
tp1085
I1064
s(g121
I45
I66
tp1086
I1065
s(g14
g5
I116
tp1087
I1066
s(g14
g5
I133
tp1088
I2698
s(g46
S'and'
tp1089
I1068
s(g24
S'theme.'
S'opportunity'
tp1090
I1069
s(g11
S'co.'
S'1980s,'
tp1091
I1070
s(g7
I15
I11
tp1092
I798
s(g20
I31
I3
tp1093
I1072
s(g24
S'owns.'
S'says.<p>'
tp1094
I1073
s(g52
g5
I117
tp1095
I1074
s(g11
S'profit,'
S'cutting.'
tp1096
I1075
s(g11
S'says'
S'business."'
tp1097
I1076
s(g4
g5
I29
tp1098
I1077
s(g24
S'attack,'
S'executive'
tp1099
I1078
s(g7
I56
I15
tp1100
I1079
s(g18
S'without'
S'that'
tp1101
I1080
s(g14
g5
I34
tp1102
I1081
s(g20
I180
I5
tp1103
I1082
s(g20
I6
I9
tp1104
I1083
s(g20
I92
I2
tp1105
I3706
s(g121
I1
I3
tp1106
I1086
s(g52
g5
I39
tp1107
I1087
s(g22
S'co.,'
S'in?'
tp1108
I350
s(g41
S'man"'
tp1109
I1088
s(g11
S'instruments"'
S'-rb-'
tp1110
I1089
s(g9
S'kidder,'
S'the'
tp1111
I41
s(g50
I105
tp1112
I1092
s(g9
S'everywhere,'
S'a'
tp1113
I1093
s(g14
g5
I144
tp1114
I1094
s(g22
S'nantucket."<p>'
S'carpenter.<p>'
tp1115
I1453
s(g18
S'kidder,'
S'who'
tp1116
I1096
s(g18
S'mr.'
S'smiling'
tp1117
I269
s(g22
S'kidder,'
S'says'
tp1118
I1098
s(g24
S'course,'
S'tools'
tp1119
I506
s(g18
S'the'
S'though'
tp1120
I1100
s(g24
S'1986'
S'assets.'
tp1121
I1101
s(g121
I9
I22
tp1122
I1102
s(g43
S'co.'
tp1123
I1103
s(g63
S'and'
S'that'
tp1124
I2705
s(g41
S'--'
tp1125
I1105
s(g33
I57
tp1126
I1106
s(g11
S'guarantees,'
S'backfire'
tp1127
I1107
s(g63
S'though'
S'the'
tp1128
I3392
s(g41
S'months.'
tp1129
I1108
s(g24
S'cutting.'
S'year.<p>'
tp1130
I3391
s(g61
S'result:'
tp1131
I1109
s(g18
S'one'
S'was'
tp1132
I1110
s(g22
S'happen.<p>'
S'flow."<p>'
tp1133
I1111
s(g20
I9
I5
tp1134
I1112
s(g121
I6
I17
tp1135
I1113
s(g18
S'but'
S'mr.'
tp1136
I3308
s(g121
I10
I48
tp1137
I1114
s(g52
g5
I155
tp1138
I1116
s(g7
I4
I2
tp1139
I1117
s(g9
S'who'
S'retires'
tp1140
I1118
s(g9
S'now,'
S'wall'
tp1141
I653
s(g372
I18
tp1142
I1457
s(g14
g5
I11
tp1143
I1122
s(g43
S'megargel,'
tp1144
I1123
s(g27
S'mr.'
tp1145
I3309
s(g9
S'ge'
g252
tp1146
I1125
s(g20
I7
I10
tp1147
I1126
s(g20
I10
I1
tp1148
I1127
s(g24
S'kidder.'
S'executive'
tp1149
I1128
s(g11
S'says.<p>'
S'broadly'
tp1150
I1129
s(g11
S'in'
S'--'
tp1151
I1130
s(g16
I31
tp1152
I1131
s(g24
S'seven'
S'deal,'
tp1153
I1132
s(g66
I5
tp1154
I1133
s(g121
I21
I27
tp1155
I1134
s(g41
S'nantucket."<p>'
tp1156
I2987
s(g46
S'with'
tp1157
I1136
s(g7
I3
I8
tp1158
I1137
s(g9
S'the'
S'kidder'
tp1159
I1138
s(g4
g5
I86
tp1160
I1140
s(g43
S'tools'
tp1161
I1141
s(g22
S'kidder.'
S'future.'
tp1162
I1142
s(g7
I54
I2
tp1163
I1143
s(g11
S'gone.<p>'
S'says'
tp1164
I1144
s(g33
I48
tp1165
I1145
s(g18
S'mr.'
g339
tp1166
I1460
s(g121
I3
I4
tp1167
I1147
s(g372
I66
tp1168
I1148
s(g18
S'as'
S'kidder'
tp1169
I3076
s(g4
g5
I153
tp1170
I1150
s(g7
I14
I18
tp1171
I642
s(g18
S'everywhere,'
S'--'
tp1172
I1153
s(g18
S'kidder,'
S'the'
tp1173
I1302
s(g121
I8
I637
tp1174
I1156
s(g50
I1052
tp1175
I1157
s(g18
S'only'
S'chief'
tp1176
I2088
s(g41
S'co.,'
tp1177
I2198
s(g24
S'co.'
S'said:'
tp1178
I1160
s(g24
S'back.<p>'
S'defections.'
tp1179
I814
s(g41
S'opportunity'
tp1180
I1162
s(g14
g5
I67
tp1181
I3689
s(g61
S'relationship,"'
tp1182
I1163
s(g7
I7
I3
tp1183
I1164
s(g16
I6
tp1184
I1165
s(g33
I152
tp1185
I1166
s(g14
g5
I20
tp1186
I1167
s(g63
S'but'
S'except'
tp1187
I2929
s(g195
S'wall'
tp1188
I1168
s(g20
I4
I11
tp1189
I1169
s(g20
I11
I2
tp1190
I1170
s(g24
S'nantucket."<p>'
S'kidder.'
tp1191
I1171
s(g11
S'peabody."'
S'year,'
tp1192
I1172
s(g41
S'investors.<p>'
tp1193
I1173
s(g33
I55
tp1194
I1174
s(g22
S'says'
S'plans.'
tp1195
I1175
s(g24
S'binge'
S'backfire'
tp1196
I1176
s(g121
I31
I66
tp1197
I1467
s(g4
g5
I125
tp1198
I1178
s(g22
S'point.'
S'gone.<p>'
tp1199
I1179
s(g195
S'by'
tp1200
I1180
s(g22
S'opportunity'
S'nantucket."<p>'
tp1201
I2718
s(g63
S'they'
S'as'
tp1202
I3662
s(g11
S'kidder'
S'plans.'
tp1203
I1182
s(g43
S'off,'
tp1204
I3447
s(g20
I12
I8
tp1205
I1184
s(g24
S'does'
S'attack,'
tp1206
I820
s(g121
I3
I31
tp1207
I1186
s(g52
g5
I119
tp1208
I2720
s(g121
I22
I12
tp1209
I1188
s(g7
I20
I8
tp1210
I1189
s(g18
S'except'
S'as'
tp1211
I1190
s(g209
I10
tp1212
I1191
s(g41
S'camps.'
tp1213
I1192
s(g14
g56
I19
tp1214
I1193
s(g63
S'mr.'
S'spencer'
tp1215
I1194
s(g18
S'they'
S'however,'
tp1216
I1195
s(g18
S'"i\'d'
S'who'
tp1217
I1196
s(g52
g5
I54
tp1218
I2104
s(g16
I13
tp1219
I1198
s(g63
S'retires'
S'by'
tp1220
I1199
s(g61
S'out.<p>'
tp1221
I1201
s(g22
S'powerhouse.'
S'skeptical.'
tp1222
I1202
s(g24
S'director.'
S'september.'
tp1223
I3300
s(g9
S'possibly'
S'he'
tp1224
I1203
s(g18
S'the'
S'will'
tp1225
I1204
s(g33
I46
tp1226
I1205
s(g22
S'harder.<p>'
S'place,'
tp1227
I1206
s(g14
g5
I125
tp1228
I1207
s(g195
S'he'
tp1229
I1208
s(g22
S'trading;'
S'does'
tp1230
I1209
s(g372
I84
tp1231
I1210
s(g18
S'they'
S'kidder'
tp1232
I1211
s(g20
I8
I3
tp1233
I1212
s(g24
S'speculation.'
S'result:'
tp1234
I1213
s(g41
S'guarantees,'
tp1235
I1214
s(g121
I93
I69
tp1236
I1215
s(g22
S'says.<p>'
S'point.'
tp1237
I3325
s(g195
S'chief'
tp1238
I1217
s(g16
I81
tp1239
I1218
s(g50
I75
tp1240
I1474
s(g4
g5
I100
tp1241
I1221
s(g61
S'carpenter.<p>'
tp1242
I3287
s(g18
S'adding'
S'he'
tp1243
I1222
s(g41
S'entirely.'
tp1244
I1223
s(g14
g5
I43
tp1245
I1224
s(g209
I3
tp1246
I1225
s(g61
S'firm,'
tp1247
I3702
s(g63
S'-lb-'
S'the'
tp1248
I1226
s(g20
I19
I8
tp1249
I1227
s(g22
S'period,'
S'skeptical.'
tp1250
I1228
s(g121
I3
I54
tp1251
I1229
s(g7
I69
I4
tp1252
I1230
s(g195
S'mainly'
tp1253
I1231
s(g52
g5
I46
tp1254
I1232
s(g66
I40
tp1255
I1233
s(g18
S'will'
S'the'
tp1256
I831
s(g121
I27
I20
tp1257
I1235
s(g9
S'smiling'
S'mr.'
tp1258
I1237
s(g63
S'theoretically,'
S'they'
tp1259
I1238
s(g63
S'with'
S'the'
tp1260
I1239
s(g9
S'smiling'
S'in'
tp1261
I3625
s(g61
S'times,"'
tp1262
I1242
s(g63
S'when'
S'who'
tp1263
I1244
s(g33
I37
tp1264
I1245
s(g20
I27
I7
tp1265
I1249
s(g46
S'possibly'
tp1266
I1250
s(g24
S'control,'
S'goals'
tp1267
I2954
s(g41
S'notes'
tp1268
I1252
s(g43
S'cathcart,'
tp1269
I1253
s(g195
S'which'
tp1270
I1254
s(g14
g5
I70
tp1271
I1255
s(g24
S'powerhouse.'
S'profit,'
tp1272
I1257
s(g22
S'point."'
S'it:'
tp1273
I965
s(g63
S'kidder'
S'in'
tp1274
I1260
s(g41
S'land'
tp1275
I2102
s(g63
S'"the'
S'the'
tp1276
I1262
s(g9
S'there'
S'the'
tp1277
I2103
s(g9
S'through'
S'mr.'
tp1278
I1265
s(g11
S'study.'
S'result:'
tp1279
I9
s(g209
I4
tp1280
I1267
s(g50
I14
tp1281
I1269
s(g52
g5
I130
tp1282
I33
s(g121
I132
I368
tp1283
I35
s(g22
g339
S'says'
tp1284
I1272
s(g9
S'a'
g96
tp1285
I1273
s(g33
I141
tp1286
I1274
s(g66
I33
tp1287
I1275
s(g14
g5
I52
tp1288
I1276
s(g121
I130
I1
tp1289
I1277
s(g9
S'"i\'d'
S'in'
tp1290
I1278
s(g43
S'it:'
tp1291
I803
s(g20
I10
I14
tp1292
I1280
s(g18
S'mr.'
S'wall'
tp1293
I1281
s(g33
I28
tp1294
I1282
s(g52
g5
I53
tp1295
I1283
s(g4
g5
I93
tp1296
I1284
s(g43
S'period,'
tp1297
I1285
s(g11
S'enough'
S'trading.<p>'
tp1298
I1286
s(g63
S'as'
S'kidder'
tp1299
I1288
s(g7
I132
I1
tp1300
I1289
s(g63
S"it's"
S'"we\'ve'
tp1301
I3334
s(g24
S'kidder.'
S'says'
tp1302
I162
s(g22
S'cathcart,'
S'future.'
tp1303
I1292
s(g24
S'carpenter.<p>'
g252
tp1304
I3335
s(g7
I25
I17
tp1305
I1293
s(g20
I24
I6
tp1306
I1294
s(g61
S'crack'
tp1307
I1295
s(g24
S'carpenter.<p>'
S'deals'
tp1308
I1296
s(g121
I9
I4
tp1309
I194
s(g121
I17
I69
tp1310
I1298
s(g121
I31
I53
tp1311
I1299
s(g43
S'business."'
tp1312
I207
s(g9
S'which'
S'--'
tp1313
I1301
s(g195
S'"the'
tp1314
I1303
s(g41
S'confides'
tp1315
I1304
s(g41
S'one."<p>'
tp1316
I1305
s(g61
S'owns.'
tp1317
I1306
s(g50
I23
tp1318
I1307
s(g18
S'mr.'
S'as'
tp1319
I1308
s(g20
I3
I14
tp1320
I255
s(g63
S'to'
S'without'
tp1321
I2107
s(g24
S'says'
S'operations.'
tp1322
I1311
s(g18
S'the'
S'-lb-'
tp1323
I1312
s(g121
I6
I31
tp1324
I1313
s(g121
I7
I5
tp1325
I1314
s(g121
I4
I51
tp1326
I1315
s(g24
S'firm,'
S'history.'
tp1327
I1316
s(g24
S'peabody."'
S'out.<p>'
tp1328
I1317
s(g7
I17
I2
tp1329
I1318
s(g43
S'land'
tp1330
I2908
s(g63
S'refueling'
S'mr.'
tp1331
I1320
s(g4
g5
I50
tp1332
I1321
s(g43
g125
tp1333
I1322
s(g33
I19
tp1334
I1323
s(g27
S'theoretically,'
tp1335
I1324
s(g14
g5
I29
tp1336
I1325
s(g9
S'kidder'
S'as'
tp1337
I342
s(g9
S"it's"
g125
tp1338
I1327
s(g22
S'carpenter.<p>'
S'out.<p>'
tp1339
I1328
s(g24
S'stress'
S'harder.<p>'
tp1340
I1329
s(g43
g87
tp1341
I1330
s(g195
g339
tp1342
I1331
s(g20
I17
I6
tp1343
I1332
s(g43
S'kidder'
tp1344
I2132
s(g63
S'you'
S'which'
tp1345
I3541
s(g52
g5
I92
tp1346
I1334
s(g20
I43
I8
tp1347
I1335
s(g27
S'now,'
tp1348
I2692
s(g43
S'home,'
tp1349
I1336
s(g4
g5
I68
tp1350
I1337
s(g18
S'that'
S'as'
tp1351
I1338
s(g9
S'"i\'ve'
S'and'
tp1352
I1492
s(g43
S'one'
tp1353
I1340
s(g9
S'ending'
S'the'
tp1354
I1341
s(g209
I22
tp1355
I1342
s(g11
S'stress'
S'place,'
tp1356
I1343
s(g18
S'"it'
S'smiling'
tp1357
I842
s(g18
S'smiling'
S'mr.'
tp1358
I1345
s(g50
I24
tp1359
I1346
s(g22
S'times,"'
S'him.'
tp1360
I1347
s(g52
g5
I14
tp1361
I1348
s(g33
I123
tp1362
I1349
s(g9
S'he'
S'wall'
tp1363
I1350
s(g27
S'you'
tp1364
I1352
s(g14
g56
I10
tp1365
I1353
s(g121
I58
I25
tp1366
I638
s(g43
S'up,'
tp1367
I1355
s(g11
S'time'
S'that'
tp1368
I1356
s(g41
S'kidder,'
tp1369
I1357
s(g33
I10
tp1370
I1358
s(g9
S'except'
S'in'
tp1371
I1359
s(g22
S'alternative"'
S'seven'
tp1372
I516
s(g9
S'was'
S'which'
tp1373
I1361
s(g121
I2
I92
tp1374
I1363
s(g22
S'confides'
S'theme.'
tp1375
I3346
s(g209
I33
tp1376
I849
s(g22
S'says'
S'results.<p>'
tp1377
I1367
s(g121
I48
I215
tp1378
I1368
s(g14
g5
I102
tp1379
I1369
s(g24
S'speculation.'
S'course,'
tp1380
I1370
s(g18
S'kidder,'
S'wall'
tp1381
I1371
s(g20
I11
I20
tp1382
I1373
s(g20
I8
I12
tp1383
I1374
s(g195
g125
tp1384
I1375
s(g7
I31
I5
tp1385
I1376
s(g52
g5
I99
tp1386
I1377
s(g121
I21
I32
tp1387
I1378
s(g121
I18
I8
tp1388
I624
s(g7
I8
I20
tp1389
I1380
s(g11
S'hum."<p>'
g35
tp1390
I1381
s(g63
S'that'
S'as'
tp1391
I1382
s(g121
I25
I1
tp1392
I1383
s(g50
I33
tp1393
I1384
s(g4
g5
I107
tp1394
I1385
s(g9
S'there'
S'more'
tp1395
I1386
s(g33
I114
tp1396
I1387
s(g41
S'flow."<p>'
tp1397
I1388
s(g22
S'megargel,'
S'says.'
tp1398
I667
s(g24
S'year.<p>'
S'trading;'
tp1399
I1390
s(g43
S'guarantees,'
tp1400
I1391
s(g63
S'that'
S'"the'
tp1401
I1392
s(g63
S'racked'
S'only'
tp1402
I1393
s(g18
S'adding'
S'i'
tp1403
I1394
s(g22
S'inc.'
S'result:'
tp1404
I1395
s(g46
S'however,'
tp1405
I706
s(g52
g5
I21
tp1406
I709
s(g63
S'its'
S'only'
tp1407
I1398
s(g9
S'the'
S'"it'
tp1408
I3538
s(g22
S'ge.'
S'says'
tp1409
I1399
s(g14
g56
I33
tp1410
I1400
s(g52
g5
I148
tp1411
I1401
s(g121
I55
I5
tp1412
I1402
s(g22
S'nantucket."<p>'
S'june.<p>'
tp1413
I1403
s(g14
g5
I130
tp1414
I1404
s(g33
I104
tp1415
I1406
s(g41
S'instruments"'
tp1416
I1493
s(g121
I183
I5
tp1417
I3650
s(g121
I8
I4
tp1418
I1407
s(g22
S'says.<p>'
S'times,"'
tp1419
I1408
s(g61
S'years'
tp1420
I1409
s(g20
I68
I8
tp1421
I3550
s(g7
I51
I5
tp1422
I1410
s(g14
g5
I79
tp1423
I1411
s(g20
I84
I1
tp1424
I1412
s(g18
S'its'
S'in'
tp1425
I1501
s(g7
I38
I13
tp1426
I1414
s(g61
S'does'
tp1427
I1415
s(g63
S'in'
S'mr.'
tp1428
I1416
s(g18
S'to'
S'turning'
tp1429
I1417
s(g33
I105
tp1430
I1418
s(g24
S'carpenter.<p>'
S'firm,'
tp1431
I880
s(g18
S'possibly'
S'"i\'ve'
tp1432
I1420
s(g11
S'happen.<p>'
S'firm,'
tp1433
I1421
s(g41
S'off,'
tp1434
I1422
s(g372
I11
tp1435
I907
s(g4
g5
I18
tp1436
I1424
s(g11
S'cathcart,'
S'directors,'
tp1437
I1425
s(g7
I6
I4
tp1438
I1426
s(g24
S'far,'
g252
tp1439
I1427
s(g14
g5
I61
tp1440
I1428
s(g22
S'harder'
S'late.'
tp1441
I1429
s(g22
S'instruments"'
S'edition.<p>'
tp1442
I1430
s(g24
S'man"'
S'one'
tp1443
I943
s(g22
S'ge.'
S'control,'
tp1444
I1433
s(g27
S'involving'
tp1445
I1434
s(g7
I17
I16
tp1446
I1504
s(g50
I68
tp1447
I3680
s(g24
S'disclosure'
S'years'
tp1448
I2747
s(g121
I20
I7
tp1449
I992
s(g403
I13
tp1450
I2565
s(g18
S'so'
S'"we\'ve'
tp1451
I1436
s(g50
I66
tp1452
I1437
s(g18
S"it's"
g125
tp1453
I1439
s(g63
S'and'
S'by'
tp1454
I1440
s(g22
S'course,'
S'trading.<p>'
tp1455
I1441
s(g9
S'so'
S'kidder'
tp1456
I1442
s(g22
S'business."'
S'says.<p>'
tp1457
I1061
s(g61
S'says.'
tp1458
I1445
s(g7
I25
I6
tp1459
I1446
s(g50
I51
tp1460
I1447
s(g121
I11
I55
tp1461
I1448
s(g61
S'people.<p>'
tp1462
I1449
s(g20
I46
I2
tp1463
I1450
s(g24
S'plans.'
S'bank.<p>'
tp1464
I1451
s(g33
I96
tp1465
I1452
s(g195
g161
tp1466
I1095
s(g14
g5
I88
tp1467
I1454
s(g7
I637
I5
tp1468
I1455
s(g403
I20
tp1469
I1456
s(g61
S'place,'
tp1470
I1120
s(g27
S'there'
tp1471
I1458
s(g20
I9
I10
tp1472
I1459
s(g24
S'kidder.'
S'alternative"'
tp1473
I1146
s(g27
S'than'
tp1474
I1461
s(g121
I25
I368
tp1475
I1462
s(g121
I10
I15
tp1476
I1463
s(g9
S'that'
S'but'
tp1477
I1464
s(g50
I218
tp1478
I1465
s(g24
S'that'
S'relationship,"'
tp1479
I1466
s(g52
g5
I144
tp1480
I1177
s(g27
S'through'
tp1481
I2129
s(g403
I15
tp1482
I1491
s(g11
S'years'
S'1990.'
tp1483
I2130
s(g14
g5
I6
tp1484
I1470
s(g27
g103
tp1485
I1471
s(g43
S'firm,'
tp1486
I1473
s(g61
S'study.'
tp1487
I1219
s(g41
S'profit,'
tp1488
I3722
s(g9
S'to'
S'retires'
tp1489
I2752
s(g9
S'he'
g161
tp1490
I1476
s(g7
I8
I9
tp1491
I3512
s(g20
I17
I13
tp1492
I1477
s(g121
I14
I25
tp1493
I1478
s(g9
S'he'
g87
tp1494
I1479
s(g52
g5
I67
tp1495
I1480
s(g7
I22
I4
tp1496
I1481
s(g18
S'kidder,'
S'kidder'
tp1497
I2754
s(g7
I3
I3
tp1498
I1268
s(g41
S'times,"'
tp1499
I1483
s(g4
g5
I6
tp1500
I2755
s(g195
S'and'
tp1501
I1484
s(g43
S'time'
tp1502
I1485
s(g33
I103
tp1503
I1486
s(g27
S'while'
tp1504
I1487
s(g18
S'and'
S'wall'
tp1505
I1326
s(g61
S'notes'
tp1506
I1490
s(g18
S'as'
S'to'
tp1507
I956
s(g121
I3
I1
tp1508
I1339
s(g52
g5
I116
tp1509
I548
s(g22
S'executive'
S'investors.<p>'
tp1510
I1494
s(g11
S'1986'
S'unit,'
tp1511
I1360
s(g52
g5
I128
tp1512
I3361
s(g7
I56
I8
tp1513
I1496
s(g18
S'retires'
S'he'
tp1514
I1497
s(g14
g56
I1
tp1515
I1498
s(g41
S'ago.'
tp1516
I2751
s(g24
S'late.'
S'june.<p>'
tp1517
I1499
s(g9
S'possibly'
S'however,'
tp1518
I1500
sS'One-Elem-Stack'
p1519
I1413
s(g41
S'megargel,'
tp1520
I1502
s(g22
S'enough'
S'notes'
tp1521
I1503
s(g33
I9
tp1522
I790
s(g33
I30
tp1523
I2847
s(g63
S'kidder'
S'when'
tp1524
I198
s(g4
g56
I21
tp1525
I1506
s(g14
g5
I111
tp1526
I505
s(g22
S'binge'
S'say'
tp1527
I1508
s(g43
S'september.'
tp1528
I3365
s(g195
S'all'
tp1529
I1510
s(g43
g161
tp1530
I1513
s(g33
I94
tp1531
I1516
s(g22
S'--'
S'works'
tp1532
I1517
s(g7
I9
I5
tp1533
I1518
s(g121
I17
I215
tp1534
I1519
s(g403
I6
tp1535
I1520
s(g4
g5
I114
tp1536
I1521
s(g9
S'a'
S'--'
tp1537
I1523
s(g121
I18
I1
tp1538
I1524
s(g18
S'--'
S'retires'
tp1539
I1525
s(g27
g35
tp1540
I1527
s(g24
S'peabody."'
S'ge,'
tp1541
I1528
s(g22
S'says'
S'carpenter,'
tp1542
I1579
s(g24
g339
S'ge.'
tp1543
I1530
s(g22
S'deals'
g125
tp1544
I1531
s(g18
S'so'
g252
tp1545
I3413
s(g22
S'future.'
S'says'
tp1546
I1532
s(g24
S'flow."<p>'
S'firm,'
tp1547
I1533
s(g20
I25
I7
tp1548
I1534
s(g18
g252
S'"we\'ve'
tp1549
I1535
s(g24
S'year,'
S'business'
tp1550
I1537
s(g7
I20
I5
tp1551
I246
s(g52
g5
I28
tp1552
I1539
s(g63
S'but'
S'that'
tp1553
I1540
s(g18
g339
S'kidder'
tp1554
I1541
s(g11
S'trading;'
S'kidder.'
tp1555
I1542
s(g61
S'operations.'
tp1556
I1543
s(g24
S'harder.<p>'
S'opportunity'
tp1557
I1544
s(g61
S'enough'
tp1558
I812
s(g14
g5
I139
tp1559
I1546
s(g22
S'business."'
S'says'
tp1560
I1547
s(g20
I26
I3
tp1561
I1548
s(g18
S'so'
S'which'
tp1562
I1549
s(g33
I149
tp1563
I1550
s(g7
I19
I9
tp1564
I688
s(g195
S'mr.'
tp1565
I1552
s(g7
I13
I8
tp1566
I1553
s(g22
S'investors.<p>'
S'kidder.'
tp1567
I1554
s(g7
I22
I1
tp1568
I2764
s(g14
g5
I120
tp1569
I1556
s(g22
S'it:'
S'background,'
tp1570
I1557
s(g403
I1
tp1571
I1558
s(g9
S'except'
S'but'
tp1572
I2765
s(g18
S'only'
S"it's"
tp1573
I1560
s(g24
S'investor,"'
S'bankers,'
tp1574
I1561
s(g24
S'--'
S'land'
tp1575
I1562
s(g9
S'smiling'
S'when'
tp1576
I3373
s(g52
g5
I113
tp1577
I1563
s(g63
S'chief'
S'only'
tp1578
I2146
s(g61
S'results.<p>'
tp1579
I1522
s(g18
S'except'
S'mr.'
tp1580
I1566
s(g7
I5
I5
tp1581
I1567
s(g24
S'place,'
S'night;'
tp1582
I1135
s(g43
S'ge.'
tp1583
I1570
s(g14
g5
I38
tp1584
I1571
s(g11
S'year,'
S'year.<p>'
tp1585
I1572
s(g20
I13
I4
tp1586
I1574
s(g7
I72
I8
tp1587
I1575
s(g61
S'hum."<p>'
tp1588
I1576
s(g16
I43
tp1589
I1577
s(g195
S'involving'
tp1590
I1578
s(g52
g5
I35
tp1591
I1580
s(g24
S'years,'
S'hum."<p>'
tp1592
I1581
s(g9
S'mr.'
g339
tp1593
I1900
s(g22
S'him.'
S'man"'
tp1594
I1583
s(g7
I23
I1
tp1595
I1584
s(g61
S'kidder,'
tp1596
I1585
s(g24
g35
S'background,'
tp1597
I1586
s(g63
S'a'
S'everywhere,'
tp1598
I1351
s(g14
g5
I148
tp1599
I1588
s(g33
I76
tp1600
I1589
s(g43
S'disclosure'
tp1601
I1590
s(g20
I20
I9
tp1602
I1591
s(g372
I637
tp1603
I1592
s(g372
I54
tp1604
I1593
s(g121
I9
I18
tp1605
I1569
s(g195
S'as'
tp1606
I1595
s(g7
I12
I11
tp1607
I1596
s(g7
I15
I17
tp1608
I1597
s(g22
S'cutting.'
S'one."<p>'
tp1609
I1598
s(g14
g5
I65
tp1610
I1599
s(g43
S'plans.'
tp1611
I1600
s(g20
I2
I8
tp1612
I1601
s(g27
S'wall'
tp1613
I1602
s(g22
S'place,'
S'stress'
tp1614
I1603
s(g20
I9
I1
tp1615
I1604
s(g9
g161
S'the'
tp1616
I1605
s(g61
g96
tp1617
I1606
s(g11
S'ideas'
S'nantucket."<p>'
tp1618
I1607
s(g7
I1
I5
tp1619
I1608
s(g52
g5
I135
tp1620
I2063
s(g43
S'1990.'
tp1621
I1610
s(g61
S'stress'
tp1622
I1538
s(g20
I66
I22
tp1623
I1612
s(g22
S'flow."<p>'
S'nantucket."<p>'
tp1624
I1573
s(g22
S'says,'
S'years,'
tp1625
I1615
s(g7
I43
I4
tp1626
I1616
s(g43
S'co.,'
tp1627
I394
s(g20
I7
I6
tp1628
I1618
s(g61
S'home,'
tp1629
I1619
s(g20
I10
I5
tp1630
I1620
s(g22
S'says.<p>'
S'owns.'
tp1631
I1621
s(g33
I67
tp1632
I1623
s(g52
g5
I74
tp1633
I1624
s(g27
S'"we\'re'
tp1634
I1625
s(g9
S'all'
S'with'
tp1635
I1626
s(g22
S'bickered.'
S'far,'
tp1636
I1628
s(g27
S'will'
tp1637
I1629
s(g121
I56
I13
tp1638
I893
s(g18
S'they'
S'theoretically,'
tp1639
I3360
s(g22
S'out.<p>'
S'carpenter.<p>'
tp1640
I1633
s(g18
S'refueling'
S'mr.'
tp1641
I1634
s(g11
S'business'
S'does'
tp1642
I1635
s(g7
I15
I10
tp1643
I1636
s(g24
S'deals'
S'stress'
tp1644
I243
s(g11
S'control,'
S'ge.'
tp1645
I1638
s(g22
S'results.<p>'
S'say'
tp1646
I2777
s(g22
S'nantucket."<p>'
g125
tp1647
I1639
s(g41
g252
tp1648
I1640
s(g43
S'back.<p>'
tp1649
I1641
s(g20
I3
I11
tp1650
I1642
s(g66
I3
tp1651
I1643
s(g61
S'powerhouse.'
tp1652
I1644
s(g9
S'"we\'ve'
S"it's"
tp1653
I1645
s(g24
S'investors.<p>'
S'far,'
tp1654
I1646
s(g11
S'say'
S'binge'
tp1655
I1647
s(g4
g5
I55
tp1656
I1648
s(g7
I7
I7
tp1657
I1649
s(g33
I58
tp1658
I1650
s(g63
S'in'
S'except'
tp1659
I1651
s(g41
S'business."'
tp1660
I1652
s(g22
S'nantucket."<p>'
S'harder.<p>'
tp1661
I1653
s(g372
I56
tp1662
I1655
s(g20
I20
I3
tp1663
I1656
s(g9
S'in'
S'he'
tp1664
I1657
s(g46
S'mr.'
tp1665
I1659
s(g52
g5
I81
tp1666
I1660
s(g41
S'assets.'
tp1667
I1661
s(g22
S'that'
S'out.<p>'
tp1668
I1664
s(g9
S'by'
S'"i\'ve'
tp1669
I1665
s(g195
S'gary'
tp1670
I1666
s(g11
S'--'
S'home,'
tp1671
I1667
s(g46
S'"we'
tp1672
I2168
s(g195
g103
tp1673
I3394
s(g7
I66
I9
tp1674
I1671
s(g121
I171
I9
tp1675
I1672
s(g41
S'past,"'
tp1676
I1673
s(g22
S'speculation.'
S'flow."<p>'
tp1677
I1674
s(g27
S'"i\'ve'
tp1678
I2786
s(g66
I4
tp1679
I1676
s(g7
I14
I5
tp1680
I1677
s(g9
S'"i\'d'
S'but'
tp1681
I1678
s(g61
S'deal,'
tp1682
I1679
s(g61
S'dwight,'
tp1683
I1680
s(g63
S'which'
S'was'
tp1684
I1681
s(g61
S'future.'
tp1685
I3397
s(g61
S'director.'
tp1686
I2787
s(g33
I49
tp1687
I1684
s(g9
S'about'
S'never'
tp1688
I1685
s(g43
S'years'
tp1689
I1686
s(g20
I23
I3
tp1690
I1687
s(g9
S'never'
S'"it'
tp1691
I275
s(g41
g161
tp1692
I1689
s(g121
I8
I13
tp1693
I938
s(g22
S'peabody."'
S'carpenter.<p>'
tp1694
I1691
s(g11
S'trading.<p>'
S'says'
tp1695
I1692
s(g4
g56
I7
tp1696
I1693
s(g14
g5
I97
tp1697
I1694
s(g20
I22
I6
tp1698
I2791
s(g20
I90
I6
tp1699
I1697
s(g20
I11
I17
tp1700
I1698
s(g20
I8
I7
tp1701
I1699
s(g24
S'profit,'
S'year,'
tp1702
I1700
s(g11
S'meltdown,'
S'defections.'
tp1703
I1702
s(g20
I32
I11
tp1704
I2173
s(g63
S'kidder'
S'mr.'
tp1705
I1704
s(g61
S'one."<p>'
tp1706
I1705
s(g16
I7
tp1707
I1706
s(g24
S'home,'
S'owns.'
tp1708
I1707
s(g33
I153
tp1709
I1708
s(g7
I6
I1
tp1710
I1709
s(g14
g5
I47
tp1711
I1710
s(g121
I131
I84
tp1712
I2710
s(g22
S'happen.<p>'
S'paper,'
tp1713
I1712
s(g63
S'he'
S'"it'
tp1714
I1713
s(g7
I13
I3
tp1715
I3310
s(g7
I69
I8
tp1716
I1714
s(g9
S'the'
S'about'
tp1717
I1715
s(g33
I40
tp1718
I1716
s(g52
g5
I42
tp1719
I1717
s(g7
I1
I4
tp1720
I1718
s(g24
S'say'
S'says'
tp1721
I2753
s(g121
I24
I48
tp1722
I1720
s(g22
S'succeed.'
S'said:'
tp1723
I1721
s(g43
S'says.'
tp1724
I1722
s(g11
S'investor,"'
S'sheehan.<p>'
tp1725
I1723
s(g372
I2
tp1726
I304
s(g33
I42
tp1727
I2796
s(g20
I1
I5
tp1728
I1725
s(g7
I84
I17
tp1729
I1726
s(g20
I20
I2
tp1730
I1727
s(g9
S'the'
S'he'
tp1731
I1728
s(g121
I5
I8
tp1732
I1729
s(g11
S'does'
S'trading;'
tp1733
I1730
s(g121
I92
I1052
tp1734
I1731
s(g61
S'off,'
tp1735
I1732
s(g22
S'kidder,'
S'trading.<p>'
tp1736
I1733
s(g121
I6
I14
tp1737
I1734
s(g7
I12
I2
tp1738
I1735
s(g63
g339
S'mr.'
tp1739
I1736
s(g209
I9
tp1740
I1738
s(g7
I7
I1
tp1741
I2799
s(g14
g5
I74
tp1742
I1740
s(g50
I3
tp1743
I1741
s(g20
I2
I1
tp1744
I1742
s(g22
S'crack'
g161
tp1745
I3166
s(g16
I14
tp1746
I1743
s(g20
I8
I16
tp1747
I1744
s(g33
I144
tp1748
I775
s(g18
S'to'
S'as'
tp1749
I1746
s(g22
S'one."<p>'
S'skeptical.'
tp1750
I1747
s(g403
I33
tp1751
I2989
s(g24
g161
S'one'
tp1752
I1749
s(g22
S'gone.<p>'
S'back.<p>'
tp1753
I3406
s(g24
S'1986'
S'carpenter.<p>'
tp1754
I1751
s(g121
I31
I92
tp1755
I692
s(g4
g5
I23
tp1756
I1753
s(g18
S'"the'
g87
tp1757
I873
s(g33
I47
tp1758
I1755
s(g9
S'--'
S'who'
tp1759
I1756
s(g14
g5
I56
tp1760
I1757
s(g20
I6
I19
tp1761
I1758
s(g9
g103
S'he'
tp1762
I1759
s(g18
S'the'
g161
tp1763
I1760
s(g195
S'ending'
tp1764
I1761
s(g20
I5
I4
tp1765
I2184
s(g20
I34
I3
tp1766
I1405
s(g7
I1
I8
tp1767
I3151
s(g18
S'kidder,'
S'mr.'
tp1768
I3407
s(g52
g5
I49
tp1769
I1765
s(g24
S'future.'
S'trading.<p>'
tp1770
I2999
s(g11
S'history.'
S'say'
tp1771
I1767
s(g4
g5
I89
tp1772
I1768
s(g7
I4
I5
tp1773
I1769
s(g41
S'carpenter.<p>'
tp1774
I2805
s(g11
S'theme.'
S'world'
tp1775
I1771
s(g20
I8
I11
tp1776
I2187
s(g63
S'involving'
S'the'
tp1777
I1773
s(g209
I2
tp1778
I1774
s(g20
I21
I5
tp1779
I1775
s(g24
S'says.'
S'in?'
tp1780
I1776
s(g50
I4
tp1781
I1777
s(g121
I2
I9
tp1782
I1778
s(g33
I151
tp1783
I1197
s(g7
I15
I3
tp1784
I1780
s(g9
S'gary'
S'in'
tp1785
I1781
s(g52
g5
I141
tp1786
I1782
s(g46
S'retires'
tp1787
I1783
s(g4
g56
I81
tp1788
I1784
s(g14
g5
I83
tp1789
I24
s(g7
I8
I6
tp1790
I1565
s(g9
S'that'
S'involving'
tp1791
I1787
s(g18
S'instead'
g252
tp1792
I1788
s(g22
S'paper,'
S'caution'
tp1793
I1789
s(g33
I38
tp1794
I1790
s(g7
I31
I4
tp1795
I1940
s(g121
I7
I1
tp1796
I1792
s(g22
S'out.<p>'
S'says,'
tp1797
I1793
s(g63
S'the'
S'there'
tp1798
I1983
s(g18
S'in'
S'in'
tp1799
I1794
s(g372
I92
tp1800
I1795
s(g52
g5
I149
tp1801
I1796
s(g20
I63
I2
tp1802
I1797
s(g50
I46
tp1803
I3549
s(g9
S'everywhere,'
S'the'
tp1804
I2193
s(g4
g5
I25
tp1805
I1568
s(g195
S'although'
tp1806
I1800
s(g20
I7
I5
tp1807
I1801
s(g9
S'retires'
S'"i\'ve'
tp1808
I1802
s(g63
S'who'
S'but'
tp1809
I1803
s(g33
I102
tp1810
I1805
s(g52
g5
I88
tp1811
I1807
s(g121
I18
I23
tp1812
I883
s(g50
I13
tp1813
I1810
s(g11
S'paper,'
S'happen.<p>'
tp1814
I1811
s(g121
I46
I17
tp1815
I1812
s(g63
S'as'
S'but'
tp1816
I1814
s(g33
I142
tp1817
I214
s(g41
S'said:'
tp1818
I1816
s(g195
S'its'
tp1819
I3418
s(g9
S'turning'
S'they'
tp1820
I1512
s(g18
S'when'
S'one'
tp1821
I1819
s(g9
S'that'
S'and'
tp1822
I1820
s(g20
I215
I17
tp1823
I1821
s(g43
S'relationship,"'
tp1824
I1822
s(g18
S'smiling'
S'kidder'
tp1825
I1622
s(g33
I29
tp1826
I1824
s(g52
g5
I10
tp1827
I1825
s(g4
g5
I147
tp1828
I1826
s(g7
I14
I12
tp1829
I1827
s(g121
I26
I32
tp1830
I1828
s(g195
S'but'
tp1831
I1829
s(g14
g56
I14
tp1832
I1830
s(g24
S'man"'
S'home,'
tp1833
I1831
s(g43
S'binge'
tp1834
I3709
s(g195
S'than'
tp1835
I1833
s(g27
S'"the'
tp1836
I1834
s(g22
S'inc.'
S'study.'
tp1837
I1836
s(g11
S'succeed.'
S'bankers'
tp1838
I1837
s(g22
S'business."'
S'carpenter,'
tp1839
I1838
s(g27
S'never'
tp1840
I1839
s(g41
S'ge.'
tp1841
I3303
s(g22
S'directors,'
S'future.'
tp1842
I1840
s(g121
I11
I9
tp1843
I1841
s(g33
I2
tp1844
I1939
s(g16
I84
tp1845
I1654
s(g4
g5
I37
tp1846
I1843
s(g33
I16
tp1847
I3422
s(g41
S'question,'
tp1848
I1845
s(g4
g56
I8
tp1849
I1846
s(g20
I5
I13
tp1850
I2036
s(g14
g5
I106
tp1851
I1848
s(g43
S'results.<p>'
tp1852
I792
s(g9
S'kidder,'
S'wall'
tp1853
I1850
s(g7
I180
I6
tp1854
I1851
s(g61
S'year,'
tp1855
I1366
s(g61
S'ge,'
tp1856
I1853
s(g24
S'ge.'
S'far,'
tp1857
I1855
s(g61
S'kidder'
tp1858
I1856
s(g52
g5
I111
tp1859
I1857
s(g7
I9
I8
tp1860
I1858
s(g7
I25
I15
tp1861
I3388
s(g7
I2
I1
tp1862
I1859
s(g4
g5
I119
tp1863
I1860
s(g33
I20
tp1864
I1861
s(g63
S'when'
g339
tp1865
I1862
s(g63
S'about'
S'the'
tp1866
I1864
s(g22
S'--'
S'world'
tp1867
I1865
s(g121
I1
I15
tp1868
I1866
s(g22
S'carpenter,'
S'says.<p>'
tp1869
I1867
s(g24
S'entirely.'
S'question,'
tp1870
I574
s(g11
S'kidder,'
S'says.<p>'
tp1871
I1869
s(g4
g5
I85
tp1872
I1870
s(g50
I368
tp1873
I1871
s(g20
I19
I7
tp1874
I1121
s(g33
I85
tp1875
I1873
s(g20
I25
I12
tp1876
I1874
s(g52
g5
I17
tp1877
I1875
s(g22
S'night;'
S'harder.<p>'
tp1878
I913
s(g24
S'ge,'
S'that.'
tp1879
I1877
s(g9
S'"the'
S'when'
tp1880
I1878
s(g61
S'theme.'
tp1881
I1880
s(g14
g5
I134
tp1882
I1881
s(g9
S'the'
S'as'
tp1883
I1882
s(g61
S'camps.'
tp1884
I1883
s(g11
S'point.'
S'cathcart'
tp1885
I2613
s(g18
S'mr.'
S'mr.'
tp1886
I1181
s(g22
S'investors.<p>'
S'year.<p>'
tp1887
I1885
s(g7
I637
I12
tp1888
I1886
s(g121
I5
I7
tp1889
I1887
s(g50
I31
tp1890
I1888
s(g22
S'bickered.'
S'up,'
tp1891
I1889
s(g22
S'says,'
S'business."'
tp1892
I1890
s(g121
I8
I8
tp1893
I1891
s(g24
S'investors.<p>'
S'firm,'
tp1894
I1892
s(g33
I124
tp1895
I1893
s(g27
S'"we'
tp1896
I1894
s(g46
S'its'
tp1897
I1895
s(g9
S'a'
S'that'
tp1898
I1896
s(g14
g5
I115
tp1899
I1897
s(g372
I6
tp1900
I1898
s(g7
I38
I9
tp1901
I1899
s(g22
S'carpenter.<p>'
S'people.<p>'
tp1902
I1901
s(g33
I11
tp1903
I1902
s(g41
S'background,'
tp1904
I3574
s(g195
S'could'
tp1905
I20
s(g61
S'co.,'
tp1906
I1905
s(g52
g5
I118
tp1907
I27
s(g18
g161
S'never'
tp1908
I1907
s(g24
S'executive'
g103
tp1909
I1908
s(g195
S'"i\'d'
tp1910
I2823
s(g33
I119
tp1911
I1910
s(g18
S'mr.'
S'in'
tp1912
I1911
s(g20
I72
I19
tp1913
I65
s(g14
g56
I129
tp1914
I1913
s(g14
g5
I33
tp1915
I1914
s(g9
S'and'
S'wall'
tp1916
I1915
s(g50
I183
tp1917
I87
s(g20
I13
I1
tp1918
I1917
s(g14
g5
I93
tp1919
I2844
s(g20
I16
I6
tp1920
I1918
s(g63
S'as'
S'to'
tp1921
I1919
s(g43
S'people.<p>'
tp1922
I3164
s(g24
S'harder.<p>'
S'harder'
tp1923
I122
s(g7
I32
I8
tp1924
I1587
s(g11
S'bickered.'
g252
tp1925
I2826
s(g50
I32
tp1926
I1924
s(g22
S'strategy,'
S'world'
tp1927
I1925
s(g9
S'he'
S'though'
tp1928
I1926
s(g11
S'works'
S'man"'
tp1929
I1927
s(g33
I115
tp1930
I1928
s(g24
S'kidder.'
S'investors.<p>'
tp1931
I1929
s(g46
S'through'
tp1932
I1931
s(g9
S'they'
S'says'
tp1933
I3439
s(g18
S'spencer'
S'who'
tp1934
I2804
s(g9
S'one'
S'the'
tp1935
I1933
s(g9
S'instead'
S'ge'
tp1936
I1934
s(g372
I1
tp1937
I1935
s(g20
I24
I19
tp1938
I1936
s(g22
S'study.'
S'speculation.'
tp1939
I1937
s(g11
S'home,'
S'land'
tp1940
I2209
s(g43
S'business'
tp1941
I221
s(g4
g5
I39
tp1942
I3453
s(g43
g252
tp1943
I1941
s(g22
S'entirely.'
S'speculation'
tp1944
I1942
s(g22
S'peabody."'
S'bickered.'
tp1945
I1944
s(g14
g5
I92
tp1946
I1945
s(g41
S'plans.'
tp1947
I1946
s(g9
S'will'
S'ending'
tp1948
I1947
s(g20
I9
I6
tp1949
I1948
s(g43
S'years,'
tp1950
I1949
s(g121
I6
I16
tp1951
I291
s(g43
S'finance.'
tp1952
I1951
s(g121
I13
I25
tp1953
I1952
s(g18
S'one'
S'which'
tp1954
I2212
s(g14
g56
I8
tp1955
I3442
s(g52
g5
I156
tp1956
I1955
s(g9
S'--'
g96
tp1957
I330
s(g11
S'--'
g96
tp1958
I1957
s(g121
I42
I12
tp1959
I1958
s(g18
S'everywhere,'
S'that'
tp1960
I1959
s(g4
g56
I40
tp1961
I1960
s(g24
S'background,'
S'point."'
tp1962
I1961
s(g14
g5
I10
tp1963
I1962
s(g4
g56
I2
tp1964
I2981
s(g11
S'speculation.'
S'question,'
tp1965
I1963
s(g11
S'world'
S'strategy,'
tp1966
I2833
s(g20
I17
I9
tp1967
I1965
s(g33
I106
tp1968
I1966
s(g33
I6
tp1969
I1154
s(g24
S'night;'
S'harder'
tp1970
I1968
s(g52
g5
I79
tp1971
I1969
s(g7
I3
I15
tp1972
I1970
s(g43
S'owns.'
tp1973
I407
s(g7
I53
I5
tp1974
I1972
s(g22
S'background,'
S'carpenter,'
tp1975
I1973
s(g195
S'now,'
tp1976
I1974
s(g63
S'"it'
S'adding'
tp1977
I1975
s(g50
I55
tp1978
I3588
s(g195
S'more'
tp1979
I1976
s(g43
S'deal,'
tp1980
I1977
s(g9
S'mr.'
S'in'
tp1981
I1978
s(g43
S'camps.'
tp1982
I1979
s(g20
I26
I7
tp1983
I2025
s(g11
S'ge,'
S'time'
tp1984
I3307
s(g14
g56
I5
tp1985
I1982
s(g41
S'june.<p>'
tp1986
I498
s(g22
S'nantucket."<p>'
S'ideas'
tp1987
I1984
s(g16
I48
tp1988
I1985
s(g20
I3
I20
tp1989
I1986
s(g9
S'retires'
S'possibly'
tp1990
I1987
s(g7
I12
I6
tp1991
I2221
s(g18
S'now,'
S'--'
tp1992
I1989
s(g121
I13
I32
tp1993
I1990
s(g43
S'bickered.'
tp1994
I1991
s(g43
S'meltdown,'
tp1995
I1992
s(g9
S'without'
S'the'
tp1996
I1993
s(g33
I97
tp1997
I1536
s(g18
S'so'
g87
tp1998
I1995
s(g18
S'now,'
S'retires'
tp1999
I1996
s(g4
g56
I17
tp2000
I1997
s(g14
g5
I19
tp2001
I1998
s(g24
S'forces,"'
S'months.'
tp2002
I592
s(g4
g5
I22
tp2003
I1785
s(g43
S'ago.'
tp2004
I2001
s(g18
S'as'
S'theoretically,'
tp2005
I2002
s(g7
I368
I2
tp2006
I2003
s(g52
g5
I86
tp2007
I633
s(g22
S'months.'
S'says'
tp2008
I3604
s(g7
I9
I1
tp2009
I2005
s(g9
g125
S'without'
tp2010
I2045
s(g121
I16
I53
tp2011
I2006
s(g22
S'backfire'
S'say'
tp2012
I2007
s(g4
g5
I126
tp2013
I2008
sS'Empty-Queue'
p2014
I2009
s(g20
I12
I15
tp2015
I2010
s(g121
I53
I132
tp2016
I2841
s(g20
I218
I8
tp2017
I715
s(g121
I22
I15
tp2018
I2015
s(g22
S'out.<p>'
S'peabody."'
tp2019
I2016
s(g52
g5
I24
tp2020
I2017
s(g24
S'meltdown,'
S'ago.'
tp2021
I2018
s(g24
S'kidder,'
S'broadly'
tp2022
I2019
s(g4
g5
I1
tp2023
I3195
s(g195
S'so'
tp2024
I2020
s(g14
g5
I143
tp2025
I774
s(g121
I17
I15
tp2026
I352
s(g9
S'you'
S'--'
tp2027
I2023
s(g22
S'1990.'
S'years'
tp2028
I802
s(g372
I26
tp2029
I2026
s(g18
S'without'
S'the'
tp2030
I2027
s(g18
g125
S'a'
tp2031
I2028
s(g22
S'--'
S'theme.'
tp2032
I2029
s(g7
I51
I10
tp2033
I2030
s(g7
I7
I4
tp2034
I2031
s(g14
g5
I124
tp2035
I2032
s(g61
S'happen.<p>'
tp2036
I2034
s(g22
S'--'
S'strategy,'
tp2037
I1613
s(g22
S'-rb-'
S'edition.<p>'
tp2038
I2037
s(g24
S'skeptical.'
S'executive'
tp2039
I2038
s(g24
S'happen.<p>'
S'say'
tp2040
I2039
s(g20
I8
I2
tp2041
I2040
s(g7
I23
I8
tp2042
I2821
s(g61
S'him.'
tp2043
I2041
s(g195
S'unless'
tp2044
I895
s(g121
I12
I7
tp2045
I1529
s(g52
g5
I125
tp2046
I2044
s(g7
I8
I2
tp2047
I911
s(g11
S'notes'
S'enough'
tp2048
I915
s(g43
S'times,"'
tp2049
I2047
s(g7
I5
I9
tp2050
I2048
s(g4
g5
I101
tp2051
I2049
s(g7
I7
I17
tp2052
I2050
s(g11
S'tools'
S'investor,"'
tp2053
I952
s(g50
I60
tp2054
I972
s(g20
I13
I8
tp2055
I2054
s(g61
S'background,'
tp2056
I2055
s(g9
S'and'
S'and'
tp2057
I2056
s(g18
S'in'
S'although'
tp2058
I2057
s(g7
I69
I7
tp2059
I2058
s(g20
I38
I2
tp2060
I998
s(g24
S'carpenter,'
S'business."'
tp2061
I931
s(g121
I20
I20
tp2062
I1010
s(g121
I10
I33
tp2063
I2234
s(g24
g125
S'off,'
tp2064
I2062
s(g403
I7
tp2065
I2064
s(g372
I37
tp2066
I2066
s(g41
S'cathcart'
tp2067
I2233
s(g63
S'he'
S'"i\'ve'
tp2068
I2067
s(g121
I19
I8
tp2069
I2235
s(g27
S'smiling'
tp2070
I1048
s(g22
S'carpenter,'
g35
tp2071
I2070
s(g9
S'-lb-'
S'--'
tp2072
I2071
s(g18
S'through'
S'gary'
tp2073
I1872
s(g24
S'broadly'
S'says'
tp2074
I2072
s(g16
I18
tp2075
I1611
s(g22
S'say'
S'history.'
tp2076
I2074
s(g22
S'study.'
S'question,'
tp2077
I2075
s(g41
S'kidder'
tp2078
I3216
s(g121
I152
I1052
tp2079
I2076
s(g121
I13
I1
tp2080
I2894
s(g24
S'co.,'
S'question,'
tp2081
I1097
s(g9
S'and'
S'a'
tp2082
I2078
s(g195
S'in'
tp2083
I1614
s(g27
S'they'
tp2084
I2081
s(g14
g5
I69
tp2085
I2082
s(g50
I84
tp2086
I2083
s(g7
I8
I3
tp2087
I2033
s(g9
S'while'
S'the'
tp2088
I2085
s(g24
S'that.'
S'carpenter.<p>'
tp2089
I2086
s(g20
I290
I8
tp2090
I2087
s(g22
S'people.<p>'
S'investors.<p>'
tp2091
I1159
s(g9
S'"we\'ve'
S'--'
tp2092
I2089
s(g14
g5
I15
tp2093
I1617
s(g18
S'a'
g96
tp2094
I2855
s(g18
S'in'
S'kidder'
tp2095
I1084
s(g52
g5
I131
tp2096
I2093
s(g7
I4
I10
tp2097
I2094
s(g33
I86
tp2098
I1200
s(g121
I1
I48
tp2099
I2096
s(g14
g5
I51
tp2100
I2097
s(g43
S'crack'
tp2101
I2098
s(g20
I7
I2
tp2102
I1240
s(g24
S'speculation'
S'speculation.'
tp2103
I2100
s(g24
S'happen.<p>'
S'inc.'
tp2104
I2101
s(g14
g5
I109
tp2105
I3131
s(g121
I14
I10
tp2106
I1261
s(g27
g339
tp2107
I1264
s(g121
I20
I13
tp2108
I1443
s(g9
S'that'
S'could'
tp2109
I1279
s(g20
I13
I19
tp2110
I2106
s(g22
S'happen.<p>'
S'trading.<p>'
tp2111
I1310
s(g63
S'"we'
S'a'
tp2112
I2108
s(g18
S'the'
S'"the'
tp2113
I2109
s(g7
I93
I12
tp2114
I2110
s(g121
I505
I132
tp2115
I2111
s(g18
S'wall'
S'in'
tp2116
I2112
s(g43
S'that.'
tp2117
I1344
s(g9
S'however,'
S'the'
tp2118
I2114
s(g24
S'inc.'
S'course,'
tp2119
I2244
s(g121
I2
I20
tp2120
I2116
s(g16
I44
tp2121
I2117
s(g121
I34
I17
tp2122
I2119
s(g22
S'happen.<p>'
S'speculation.'
tp2123
I2120
s(g33
I77
tp2124
I2122
s(g9
S'and'
S'mr.'
tp2125
I2247
s(g61
S'deals'
tp2126
I2124
s(g46
S'when'
tp2127
I2125
s(g18
S'kidder,'
S'its'
tp2128
I2126
s(g372
I55
tp2129
I2127
s(g121
I17
I8
tp2130
I2128
s(g4
g5
I51
tp2131
I1468
s(g7
I7
I11
tp2132
I1469
s(g43
S'past,"'
tp2133
I2131
s(g14
g5
I28
tp2134
I1489
s(g20
I4
I3
tp2135
I2133
s(g41
S'result:'
tp2136
I3462
s(g24
S'said:'
S'profit,'
tp2137
I2134
s(g43
S'harder.<p>'
tp2138
I2135
s(g9
S'theoretically,'
S'kidder'
tp2139
I2136
s(g11
S'binge'
S'guarantees,'
tp2140
I858
s(g63
S'he'
S'mr.'
tp2141
I2863
s(g61
S'trading;'
tp2142
I2140
s(g52
g5
I93
tp2143
I2141
s(g7
I9
I22
tp2144
I2142
s(g24
S'nantucket."<p>'
S'seven'
tp2145
I2143
s(g61
S'up,'
tp2146
I2144
s(g18
S'by'
S'who'
tp2147
I2145
s(g16
I19
tp2148
I1564
s(g18
S'through'
S'"i\'d'
tp2149
I3477
s(g9
S'kidder,'
S'only'
tp2150
I2147
s(g66
I9
tp2151
I2148
s(g11
S'out.<p>'
S'ge,'
tp2152
I2149
s(g43
S'entirely.'
tp2153
I2150
s(g24
S'says'
S'skeptical.'
tp2154
I2865
s(g18
g125
S'kidder'
tp2155
I2152
s(g9
S'there'
S'mr.'
tp2156
I2154
s(g24
S'bickered.'
S'peabody."'
tp2157
I2155
s(g20
I18
I3
tp2158
I139
s(g18
S'mr.'
S'when'
tp2159
I2157
s(g18
S'through'
S'in'
tp2160
I2158
s(g7
I132
I8
tp2161
I2159
s(g33
I68
tp2162
I2160
s(g43
S'theme.'
tp2163
I2161
s(g24
S'co.'
S'powerhouse.'
tp2164
I1630
s(g4
g5
I136
tp2165
I2163
s(g9
S'when'
S'kidder'
tp2166
I2164
s(g41
S'far,'
tp2167
I2165
s(g11
S'ge.'
S'goals'
tp2168
I2252
s(g24
S'says.<p>'
S'plans.'
tp2169
I2167
s(g121
I56
I72
tp2170
I1668
s(g22
S'bank.<p>'
S'back.<p>'
tp2171
I3620
s(g46
S'kidder'
tp2172
I2169
s(g43
S'said:'
tp2173
I2084
s(g121
I18
I37
tp2174
I2105
s(g11
S'backfire'
S'results.<p>'
tp2175
I2171
s(g121
I3
I69
tp2176
I2172
s(g7
I16
I6
tp2177
I1703
s(g18
S'"i\'d'
S'in'
tp2178
I2174
s(g11
S'strategy,'
S'--'
tp2179
I2175
s(g61
S'late.'
tp2180
I2176
s(g63
S'there'
S'mr.'
tp2181
I2177
s(g24
S'results.<p>'
S'broadly'
tp2182
I2178
s(g4
g56
I3
tp2183
I2179
s(g24
S'directors,'
S'trading.<p>'
tp2184
I2180
s(g14
g5
I101
tp2185
I2181
s(g50
I111
tp2186
I2182
s(g9
g96
S'that'
tp2187
I2183
s(g63
S'in'
S'smiling'
tp2188
I1762
s(g16
I26
tp2189
I2185
s(g18
S'through'
S'its'
tp2190
I2186
s(g63
S'the'
S'to'
tp2191
I1772
s(g66
I2
tp2192
I2188
s(g24
S'1990.'
S'instruments"'
tp2193
I1000
s(g63
S'while'
S'that'
tp2194
I2190
s(g121
I12
I8
tp2195
I1791
s(g52
g5
I100
tp2196
I2192
s(g7
I9
I15
tp2197
I1798
s(g195
S'retires'
tp2198
I2194
s(g195
S'only'
tp2199
I2195
s(g372
I5
tp2200
I3489
s(g52
g5
I56
tp2201
I1920
s(g33
I59
tp2202
I2197
s(g43
S'director.'
tp2203
I2138
s(g18
S'through'
S'when'
tp2204
I2199
s(g52
g5
I6
tp2205
I376
s(g14
g5
I145
tp2206
I2201
s(g24
S'nantucket."<p>'
S'firm,'
tp2207
I1362
s(g20
I47
I5
tp2208
I1627
s(g43
S'does'
tp2209
I2205
s(g41
g87
tp2210
I2206
s(g24
S'says.<p>'
S'years,'
tp2211
I2208
s(g63
S'was'
S'one'
tp2212
I1938
s(g14
g5
I129
tp2213
I2210
s(g24
S'cathcart'
S'man"'
tp2214
I1690
s(g43
S'question,'
tp2215
I1953
s(g61
g252
tp2216
I2213
s(g22
S'background,'
g35
tp2217
I2214
s(g121
I5
I12
tp2218
I1236
s(g9
S'its'
S'chief'
tp2219
I3297
s(g24
g161
S'him.'
tp2220
I2217
s(g22
S'investor,"'
S'tools'
tp2221
I2218
s(g22
S'speculation.'
S'co.,'
tp2222
I1085
s(g9
S'as'
S'again'
tp2223
I2220
s(g22
S'result:'
S'study.'
tp2224
I1988
s(g9
S'now,'
S'by'
tp2225
I2222
s(g22
S'--'
S'man"'
tp2226
I2223
s(g61
S'years,'
tp2227
I2224
s(g43
S'alternative"'
tp2228
I2225
s(g14
g5
I78
tp2229
I2226
s(g11
S'results.<p>'
S'says'
tp2230
I2227
s(g43
S'hum."<p>'
tp2231
I2228
s(g33
I50
tp2232
I2229
s(g24
S'months.'
S'trimmed'
tp2233
I2770
s(g22
S'results.<p>'
S'investors.<p>'
tp2234
I2035
s(g43
S'1980s,'
tp2235
I2231
s(g121
I12
I17
tp2236
I519
s(g22
S'people.<p>'
S'months.'
tp2237
I2121
s(g20
I40
I17
tp2238
I2068
s(g195
S'without'
tp2239
I2237
s(g52
g5
I138
tp2240
I2079
s(g9
S'through'
S'according'
tp2241
I2239
s(g63
S'mr.'
S'mr.'
tp2242
I2240
s(g22
S'carpenter.<p>'
S'that.'
tp2243
I2241
s(g14
g5
I60
tp2244
I2242
s(g61
S'disclosure'
tp2245
I2243
s(g24
S'sheehan.<p>'
S'firm,'
tp2246
I2115
s(g9
S'they'
S'theoretically,'
tp2247
I2245
s(g11
S'plans.'
S'says'
tp2248
I2123
s(g52
g5
I61
tp2249
I2249
s(g43
S'harder'
tp2250
I2250
s(g43
S'place,'
tp2251
I2251
s(g50
I684
tp2252
I2166
s(g9
S'a'
S'the'
tp2253
I2253
s(g16
I8
tp2254
I2254
s(g33
I154
tp2255
I108
s(g33
I14
tp2256
I3494
s(g27
S'however,'
tp2257
I2256
s(g27
S'turning'
tp2258
I2257
s(g18
S'by'
S'mr.'
tp2259
I2258
s(g121
I2
I13
tp2260
I2259
s(g18
S'now,'
S'wall'
tp2261
I2260
s(g33
I41
tp2262
I2261
s(g121
I17
I38
tp2263
I2219
s(g7
I15
I7
tp2264
I2262
s(g22
S'says.<p>'
S'kidder,'
tp2265
I2263
s(g24
S'skeptical.'
S'co.'
tp2266
I2264
s(g14
g5
I87
tp2267
I2265
s(g27
S'its'
tp2268
I1014
s(g63
S'who'
S'--'
tp2269
I2267
s(g20
I3
I6
tp2270
I2268
s(g195
S'was'
tp2271
I2269
s(g20
I9
I11
tp2272
I2270
s(g372
I32
tp2273
I3657
s(g20
I120
I5
tp2274
I2272
s(g7
I17
I10
tp2275
I2273
s(g11
S'deals'
S'off,'
tp2276
I2318
s(g121
I7
I27
tp2277
I2275
s(g7
I10
I19
tp2278
I2276
s(g52
g5
I145
tp2279
I2277
s(g4
g5
I58
tp2280
I2278
s(g209
I8
tp2281
I2280
s(g9
S'that'
S'as'
tp2282
I2281
s(g14
g5
I5
tp2283
I2282
s(g9
S'--'
S'says'
tp2284
I2283
s(g50
I2
tp2285
I2285
s(g372
I368
tp2286
I2286
s(g43
S'opportunity'
tp2287
I2287
s(g22
S'backfire'
S'guarantees,'
tp2288
I2288
s(g16
I15
tp2289
I2289
s(g33
I145
tp2290
I2232
s(g66
I21
tp2291
I2291
s(g41
S'january.'
tp2292
I2292
s(g18
S'they'
S'says'
tp2293
I435
s(g50
I93
tp2294
I2113
s(g24
S'notes'
S'course,'
tp2295
I2295
s(g18
S'a'
S'than'
tp2296
I2296
s(g33
I32
tp2297
I2297
s(g18
S'the'
S'according'
tp2298
I2298
s(g41
S'peabody."'
tp2299
I2299
s(g18
S'by'
S'wall'
tp2300
I2300
s(g41
S'director.'
tp2301
I2301
s(g7
I92
I6
tp2302
I2302
s(g4
g56
I15
tp2303
I2303
s(g18
S'a'
S'"we'
tp2304
I1766
s(g121
I9
I51
tp2305
I2306
s(g63
S'unless'
S'that'
tp2306
I2307
s(g63
S'--'
S'-lb-'
tp2307
I2308
s(g7
I14
I8
tp2308
I2309
s(g14
g56
I2
tp2309
I2310
s(g121
I69
I56
tp2310
I686
s(g63
S'without'
g125
tp2311
I2312
s(g209
I1
tp2312
I2313
s(g50
I11
tp2313
I2314
s(g121
I10
I23
tp2314
I2315
s(g22
S'investors.<p>'
S'bank.<p>'
tp2315
I2316
s(g18
S'the'
S'"it'
tp2316
I527
s(g18
S'the'
S'with'
tp2317
I2445
s(g4
g5
I33
tp2318
I2319
s(g63
S'says'
S"it's"
tp2319
I2012
s(g22
S'investors.<p>'
S'attack,'
tp2320
I2321
s(g7
I1052
I7
tp2321
I2118
s(g195
S'through'
tp2322
I2323
s(g27
S'in'
tp2323
I2324
s(g41
S'owns.'
tp2324
I2325
s(g24
S'opportunity'
S'seven'
tp2325
I2326
s(g33
I39
tp2326
I2327
s(g7
I368
I7
tp2327
I2328
s(g18
S'smiling'
S'the'
tp2328
I2329
s(g18
S'however,'
S'involving'
tp2329
I2330
s(g9
S'but'
S'mr.'
tp2330
I2331
s(g7
I9
I4
tp2331
I2332
s(g43
S'dwight,'
tp2332
I2333
s(g372
I93
tp2333
I2334
s(g9
S'adding'
S'"it'
tp2334
I3669
s(g7
I2
I5
tp2335
I2335
s(g9
S'mr.'
S'one'
tp2336
I2336
s(g22
S'in?'
S'flow."<p>'
tp2337
I2337
s(g403
I17
tp2338
I1804
s(g18
S'so'
S'--'
tp2339
I2340
s(g20
I12
I2
tp2340
I2341
s(g14
g5
I24
tp2341
I2342
s(g121
I162
I56
tp2342
I2343
s(g7
I66
I3
tp2343
I2344
s(g63
S'he'
S'the'
tp2344
I2345
s(g9
S'but'
S'as'
tp2345
I2346
s(g52
g5
I29
tp2346
I2347
s(g11
S'says'
g339
tp2347
I2348
s(g50
I12
tp2348
I2349
s(g4
g5
I13
tp2349
I2898
s(g22
S'bank.<p>'
S'says'
tp2350
I2351
s(g18
S'through'
S'mainly'
tp2351
I2352
s(g33
I143
tp2352
I2353
s(g14
g5
I138
tp2353
I2354
s(g22
S'deal,'
S'kidder.'
tp2354
I2355
s(g24
S'sheehan.<p>'
S'camps.'
tp2355
I2356
s(g9
S'refueling'
S'to'
tp2356
I2357
s(g41
S'business'
tp2357
I2358
s(g20
I26
I2
tp2358
I2359
s(g11
S'opportunity'
S'kidder.'
tp2359
I2360
s(g121
I8
I12
tp2360
I2361
s(g18
S'so'
S'he'
tp2361
I1029
s(g195
S'"i\'ve'
tp2362
I2364
s(g14
g5
I119
tp2363
I2153
s(g63
S'in'
S'through'
tp2364
I2366
s(g27
S'one'
tp2365
I2367
s(g18
S'mr.'
g252
tp2366
I2368
s(g18
S'wall'
S'mr.'
tp2367
I2369
s(g52
g5
I114
tp2368
I2370
s(g121
I19
I3
tp2369
I156
s(g7
I215
I8
tp2370
I2372
s(g61
S'point."'
tp2371
I2373
s(g7
I5
I4
tp2372
I2374
s(g209
I19
tp2373
I2375
s(g22
S'says.<p>'
S'him.'
tp2374
I2376
s(g14
g5
I37
tp2375
I2377
s(g50
I37
tp2376
I3516
s(g20
I6
I4
tp2377
I2379
s(g50
I21
tp2378
I2380
s(g22
S'hum."<p>'
S'business."'
tp2379
I2381
s(g9
S'by'
S'and'
tp2380
I2382
s(g24
S'trading;'
S'attack,'
tp2381
I2383
s(g33
I134
tp2382
I496
s(g7
I69
I2
tp2383
I2385
s(g20
I38
I9
tp2384
I2386
s(g11
S'business."'
S'years,'
tp2385
I2387
s(g22
S'kidder.'
S'nantucket."<p>'
tp2386
I1012
s(g22
S'trimmed'
S'january.'
tp2387
I3586
s(g43
S'unit,'
tp2388
I2389
s(g41
S'back.<p>'
tp2389
I2390
s(g9
S'"i\'ve'
S'he'
tp2390
I2391
s(g33
I21
tp2391
I2392
s(g22
S'point."'
S'business."'
tp2392
I2393
s(g11
S'one."<p>'
S'profit,'
tp2393
I2906
s(g18
S'so'
S'to'
tp2394
I2395
s(g43
S'in?'
tp2395
I2396
s(g52
g5
I37
tp2396
I3192
s(g121
I5
I18
tp2397
I2398
s(g63
S'but'
S'"i\'d'
tp2398
I2399
s(g24
S'instruments'
S'edition.<p>'
tp2399
I3519
s(g7
I12
I8
tp2400
I2402
s(g52
g5
I68
tp2401
I2403
s(g24
S'home,'
S'kidder,'
tp2402
I2404
s(g24
S'trading.<p>'
S'kidder,'
tp2403
I2405
s(g14
g5
I64
tp2404
I2406
s(g41
S'results.<p>'
tp2405
I2236
s(g18
S'who'
S'to'
tp2406
I2408
s(g20
I5
I33
tp2407
I2409
s(g24
S'out.<p>'
S'time'
tp2408
I2410
s(g63
S'although'
S'its'
tp2409
I2411
s(g20
I9
I2
tp2410
I2412
s(g209
I20
tp2411
I2413
s(g43
S'--'
tp2412
I2414
s(g24
S'1980s,'
S'said:'
tp2413
I2415
s(g18
S'a'
S'says'
tp2414
I2416
s(g24
S'instruments'
S'1990.'
tp2415
I2417
s(g22
S'history.'
S'firm,'
tp2416
I2418
s(g7
I3
I2
tp2417
I2294
s(g52
g5
I152
tp2418
I2420
s(g33
I125
tp2419
I301
s(g52
g5
I55
tp2420
I2911
s(g11
S'says'
S'point.'
tp2421
I2423
s(g46
S'"it'
tp2422
I2424
s(g121
I20
I3
tp2423
I2425
s(g14
g5
I14
tp2424
I2426
s(g24
S'camps.'
S'paper,'
tp2425
I2427
s(g7
I26
I10
tp2426
I3522
s(g372
I7
tp2427
I2428
s(g22
S'point."'
S'says.<p>'
tp2428
I1139
s(g41
S'kidder.'
tp2429
I2431
s(g33
I12
tp2430
I2432
s(g11
S'co.,'
S'speculation'
tp2431
I3336
s(g9
S'only'
S'chief'
tp2432
I2433
s(g18
S'who'
S'retires'
tp2433
I2434
s(g52
g5
I75
tp2434
I2435
s(g121
I637
I368
tp2435
I2436
s(g121
I19
I72
tp2436
I2437
s(g20
I12
I7
tp2437
I2200
s(g22
S'nantucket."<p>'
S'confides'
tp2438
I2439
s(g41
S'1986'
tp2439
I2440
s(g46
S'by'
tp2440
I2441
s(g24
S'inc.'
S'enough'
tp2441
I2442
s(g20
I15
I10
tp2442
I2443
s(g18
S'as'
S'they'
tp2443
I2444
s(g18
S'by'
S'and'
tp2444
I2446
s(g121
I43
I9
tp2445
I3743
s(g22
S'carpenter.<p>'
S'ge.'
tp2446
I2447
s(g24
S'paper,'
S'firm,'
tp2447
I2448
s(g18
S'the'
S'that'
tp2448
I2449
s(g50
I39
tp2449
I2450
s(g22
S'notes'
S'inc.'
tp2450
I2451
s(g24
S'period,'
S'1980s,'
tp2451
I2452
s(g63
g35
S'in'
tp2452
I2453
s(g24
S'finance.'
S'bankers,'
tp2453
I1809
s(g20
I3
I8
tp2454
I2455
s(g121
I7
I15
tp2455
I2456
s(g9
S'the'
S'"we\'ve'
tp2456
I2384
s(g9
S'the'
S'the'
tp2457
I2458
s(g372
I14
tp2458
I2459
s(g24
S'enough'
S'course,'
tp2459
I2460
s(g18
S'in'
S'mr.'
tp2460
I2461
s(g18
S'the'
S'mr.'
tp2461
I2462
s(g33
I3
tp2462
I2463
s(g195
S'puts'
tp2463
I2464
s(g7
I7
I6
tp2464
I2465
s(g22
S'one."<p>'
S'bankers'
tp2465
I2304
s(g11
S'carpenter,'
S'background,'
tp2466
I2013
s(g18
S'as'
S'puts'
tp2467
I2469
s(g20
I4
I6
tp2468
I2470
s(g63
g103
S'mr.'
tp2469
I2077
s(g121
I26
I637
tp2470
I2471
s(g20
I11
I7
tp2471
I2472
s(g24
S'months.'
S'january.'
tp2472
I2473
s(g24
S'business."'
S'hum."<p>'
tp2473
I2474
s(g121
I14
I22
tp2474
I2475
s(g52
g5
I82
tp2475
I2476
s(g9
S'he'
S'and'
tp2476
I2478
s(g24
S'harder.<p>'
S'late.'
tp2477
I2479
s(g9
S'according'
S"it's"
tp2478
I2480
s(g9
S'to'
S'the'
tp2479
I2467
s(g9
S'says'
S'"we\'ve'
tp2480
I2482
s(g22
S'stress'
S'off,'
tp2481
I2483
s(g50
I40
tp2482
I2484
s(g7
I1052
I2
tp2483
I2485
s(g63
S'to'
S'they'
tp2484
I2486
s(g33
I107
tp2485
I2487
s(g33
I130
tp2486
I1514
s(g63
S'only'
S'kidder,'
tp2487
I2489
s(g121
I111
I9
tp2488
I2490
s(g43
S'flow."<p>'
tp2489
I2491
s(g52
g5
I4
tp2490
I2492
s(g7
I14
I6
tp2491
I2493
s(g27
g161
tp2492
I2494
s(g372
I9
tp2493
I2495
s(g121
I2
I23
tp2494
I1149
s(g11
S'kidder,'
g161
tp2495
I2497
s(g9
S'"we\'ve'
S'which'
tp2496
I2498
s(g43
S'year,'
tp2497
I2499
s(g195
S'refueling'
tp2498
I2501
s(g50
I215
tp2499
I2502
s(g121
I4
I14
tp2500
I2503
s(g24
S'business."'
S'says,'
tp2501
I2504
s(g27
S"it's"
tp2502
I2505
s(g121
I9
I6
tp2503
I2925
s(g24
S'bankers'
S'profit,'
tp2504
I2506
s(g22
S'business'
S'year.<p>'
tp2505
I2507
s(g63
S'when'
S'smiling'
tp2506
I2508
s(g4
g56
I6
tp2507
I2509
s(g18
S'however,'
S'could'
tp2508
I2510
s(g11
S'question,'
S'study.'
tp2509
I729
s(g14
g5
I135
tp2510
I2512
s(g61
S'says.<p>'
tp2511
I2513
s(g9
S'when'
S'one'
tp2512
I2514
s(g22
S'defections.'
S'meltdown,'
tp2513
I2515
s(g24
S'study.'
S'inc.'
tp2514
I2516
s(g16
I130
tp2515
I2024
s(g121
I12
I3
tp2516
I2518
s(g52
g5
I121
tp2517
I2519
s(g24
S'hum."<p>'
S'carpenter,'
tp2518
I2520
s(g7
I25
I19
tp2519
I2521
s(g195
S'according'
tp2520
I2522
s(g7
I5
I13
tp2521
I2523
s(g22
S'camps.'
S'bankers,'
tp2522
I64
s(g33
I98
tp2523
I2525
s(g20
I69
I15
tp2524
I2526
s(g63
S'mr.'
S'and'
tp2525
I2527
s(g9
S'except'
S'mr.'
tp2526
I2528
s(g43
S'trading.<p>'
tp2527
I2529
s(g14
g5
I46
tp2528
I2530
s(g403
I18
tp2529
I2531
s(g372
I16
tp2530
I2532
s(g27
S'but'
tp2531
I2533
s(g121
I23
I8
tp2532
I2534
s(g52
g5
I43
tp2533
I2535
s(g22
S'kidder.'
S'does'
tp2534
I2536
s(g7
I1
I7
tp2535
I2537
s(g121
I27
I25
tp2536
I2538
s(g9
S'to'
S'kidder,'
tp2537
I1943
s(g7
I58
I6
tp2538
I2540
s(g22
S'camps.'
S'sheehan.<p>'
tp2539
I2541
s(g7
I55
I9
tp2540
I2542
s(g18
S'a'
S'everywhere,'
tp2541
I2543
s(g121
I34
I13
tp2542
I3539
s(g14
g5
I156
tp2543
I2545
s(g121
I10
I2
tp2544
I2546
s(g7
I5
I6
tp2545
I1505
s(g18
S'gary'
S'but'
tp2546
I2548
s(g121
I5
I9
tp2547
I2549
s(g9
S'possibly'
S'"i\'ve'
tp2548
I2550
s(g61
S'binge'
tp2549
I2735
s(g63
S'instead'
S'so'
tp2550
I2552
s(g7
I12
I3
tp2551
I2553
s(g121
I4
I15
tp2552
I1688
s(g63
S'wall'
S'kidder,'
tp2553
I2555
s(g14
g56
I89
tp2554
I734
s(g14
g5
I73
tp2555
I2557
s(g33
I89
tp2556
I2558
s(g43
S'carpenter,'
tp2557
I2559
s(g11
S'camps.'
S'caution'
tp2558
I2560
s(g18
S'its'
S'except'
tp2559
I2561
s(g24
S'results.<p>'
S'cathcart,'
tp2560
I2562
s(g33
I121
tp2561
I2563
s(g195
S'--'
tp2562
I2564
s(g121
I12
I20
tp2563
I171
s(g33
I138
tp2564
I1701
s(g24
S'--'
S'ideas'
tp2565
I325
s(g11
S'trading.<p>'
S'course,'
tp2566
I2568
s(g24
S'out.<p>'
S'relationship,"'
tp2567
I2569
s(g61
S'opportunity'
tp2568
I2570
s(g18
S'by'
S'retires'
tp2569
I2571
s(g52
g5
I143
tp2570
I2572
s(g4
g5
I8
tp2571
I2573
s(g195
S'instead'
tp2572
I2574
s(g14
g5
I55
tp2573
I2575
s(g20
I6
I18
tp2574
I2576
s(g22
S'profit,'
S'one."<p>'
tp2575
I2577
s(g22
S'september.'
S'director.'
tp2576
I2578
s(g16
I144
tp2577
I379
s(g22
S'tools'
S'finance.'
tp2578
I2580
s(g52
g5
I50
tp2579
I2581
s(g9
S'one'
S'when'
tp2580
I2582
s(g121
I23
I23
tp2581
I2196
s(g24
S'man"'
S'--'
tp2582
I2680
s(g11
S'in?'
S'co.,'
tp2583
I2583
s(g20
I14
I7
tp2584
I2584
s(g11
S'background,'
S'it:'
tp2585
I2585
s(g43
S'paper,'
tp2586
I464
s(g63
S'about'
S'a'
tp2587
I2587
s(g11
S'land'
S'owns.'
tp2588
I2588
s(g33
I80
tp2589
I2589
s(g9
S'that'
S'kidder'
tp2590
I479
s(g43
S'months.'
tp2591
I2591
s(g24
S'cathcart,'
S'kidder.'
tp2592
I1903
s(g24
S'flow."<p>'
S'co.,'
tp2593
I2593
s(g195
S'will'
tp2594
I2594
s(g9
S'kidder'
S'one'
tp2595
I2595
s(g403
I4
tp2596
I2596
s(g9
S'to'
S'"the'
tp2597
I2597
s(g372
I34
tp2598
I2598
s(g20
I6
I6
tp2599
I1545
s(g7
I637
I3
tp2600
I2600
s(g24
S'ge.'
S'1986'
tp2601
I2601
s(g24
S'ge.'
S'unit,'
tp2602
I2942
s(g61
S'flow."<p>'
tp2603
I2603
s(g20
I3
I3
tp2604
I2604
s(g63
S'so'
S'mr.'
tp2605
I538
s(g11
S'skeptical.'
S'period,'
tp2606
I3552
s(g63
S'possibly'
S'theoretically,'
tp2607
I2607
s(g121
I7
I6
tp2608
I2608
s(g9
S'with'
S'mr.'
tp2609
I554
s(g121
I17
I20
tp2610
I2610
s(g7
I13
I32
tp2611
I2611
s(g52
g5
I150
tp2612
I1246
s(g43
S'far,'
tp2613
I2938
s(g22
S'ge.'
S'people.<p>'
tp2614
I2230
s(g7
I23
I5
tp2615
I694
s(g9
S'that'
S'one'
tp2616
I2614
s(g22
S'kidder,'
S'owns.'
tp2617
I2615
s(g195
S'theoretically,'
tp2618
I603
s(g121
I16
I12
tp2619
I3556
s(g20
I7
I17
tp2620
I2618
s(g63
g87
S'the'
tp2621
I2619
s(g14
g5
I110
tp2622
I2322
s(g9
S'so'
S'instead'
tp2623
I2621
s(g20
I17
I3
tp2624
I2622
s(g41
S'ideas'
tp2625
I637
s(g195
S'i'
tp2626
I1930
s(g52
g5
I89
tp2627
I2625
s(g24
S'history.'
S'says'
tp2628
I2626
s(g43
S'peabody."'
tp2629
I2627
s(g7
I3
I5
tp2630
I2628
s(g18
S'mr.'
S'so'
tp2631
I2629
s(g22
S'history.'
S'happen.<p>'
tp2632
I672
s(g33
I87
tp2633
I2631
s(g33
I66
tp2634
I2632
s(g24
S'one'
S'says.<p>'
tp2635
I2633
s(g22
S'peabody."'
S'carpenter,'
tp2636
I2634
s(g27
S'without'
tp2637
I3559
s(g11
S'says'
S'future.'
tp2638
I2635
s(g20
I4
I13
tp2639
I2636
s(g7
I92
I3
tp2640
I2637
s(g22
S'owns.'
S'land'
tp2641
I2638
s(g63
S'ge'
S'instead'
tp2642
I2639
s(g24
S'caution'
S'happen.<p>'
tp2643
I2640
s(g52
g5
I11
tp2644
I2641
s(g52
g5
I129
tp2645
I2642
s(g195
S'possibly'
tp2646
I2592
s(g24
S'carpenter.<p>'
g125
tp2647
I768
s(g195
g35
tp2648
I2645
s(g61
S'ago.'
tp2649
I2646
s(g43
S'ge,'
tp2650
I2647
s(g9
S'when'
S'mr.'
tp2651
I2648
s(g11
S'director.'
S'dwight,'
tp2652
I2649
s(g121
I90
I93
tp2653
I2922
s(g63
S'kidder'
S'the'
tp2654
I2650
s(g43
S'carpenter.<p>'
tp2655
I2652
s(g121
I12
I12
tp2656
I2653
s(g50
I92
tp2657
I916
s(g43
S'seven'
tp2658
I2655
s(g52
g5
I120
tp2659
I2656
s(g24
S'backfire'
S'says'
tp2660
I837
s(g43
S'january.'
tp2661
I2658
s(g9
S'could'
S'unless'
tp2662
I2659
s(g43
S'defections.'
tp2663
I2660
s(g121
I69
I368
tp2664
I866
s(g14
g5
I105
tp2665
I2662
s(g61
S'kidder.'
tp2666
I2663
s(g41
S'tools'
tp2667
I2664
s(g18
S'to'
S'the'
tp2668
I1151
s(g22
S'trading.<p>'
S'results.<p>'
tp2669
I410
s(g20
I2
I32
tp2670
I2667
s(g33
I78
tp2671
I2202
s(g195
S'spencer'
tp2672
I2669
s(g50
I42
tp2673
I2670
s(g61
S'cathcart,'
tp2674
I1682
s(g63
S'all'
S'now,'
tp2675
I2672
s(g33
I101
tp2676
I2673
s(g52
g5
I96
tp2677
I2674
s(g52
g5
I107
tp2678
I2339
s(g9
S'"the'
g87
tp2679
I3566
s(g63
g252
S'so'
tp2680
I2952
s(g195
S'except'
tp2681
I2677
s(g16
I33
tp2682
I3645
s(g11
S'carpenter,'
S'says'
tp2683
I2678
s(g24
S'cathcart'
S'home,'
tp2684
I2679
s(g18
S'in'
S'except'
tp2685
I979
s(g24
S'trading.<p>'
S'broadly'
tp2686
I2681
s(g20
I12
I5
tp2687
I989
s(g46
S'who'
tp2688
I2683
s(g18
S'a'
S'a'
tp2689
I2684
s(g121
I3
I34
tp2690
I2685
s(g7
I27
I14
tp2691
I1013
s(g9
S'without'
S'to'
tp2692
I1017
s(g11
S'far,'
S'up,'
tp2693
I1020
s(g52
g5
I18
tp2694
I2689
s(g50
I29
tp2695
I1981
s(g52
g5
I33
tp2696
I3668
s(g11
S'him.'
S'one'
tp2697
I2691
s(g24
S'tools'
S'sheehan.<p>'
tp2698
I1042
s(g18
S'with'
S'refueling'
tp2699
I2693
s(g24
S'point.'
S'skeptical.'
tp2700
I2694
s(g16
I20
tp2701
I2695
s(g66
I8
tp2702
I2696
s(g24
S'co.,'
S'entirely.'
tp2703
I2697
s(g41
S'broadly'
tp2704
I1067
s(g18
g161
S'about'
tp2705
I2699
s(g43
S'him.'
tp2706
I2700
s(g22
S'nantucket."<p>'
S'theme.'
tp2707
I2701
s(g24
S'flow."<p>'
S'question,'
tp2708
I2702
s(g14
g5
I152
tp2709
I2703
s(g41
S'crack'
tp2710
I2704
s(g121
I8
I7
tp2711
I1104
s(g33
I69
tp2712
I2706
s(g121
I9
I93
tp2713
I2866
s(g11
S'seven'
S'alternative"'
tp2714
I2707
s(g22
S'flow."<p>'
S'says.'
tp2715
I2708
s(g24
S'says'
g161
tp2716
I2709
s(g43
S'operations.'
tp2717
I2675
s(g14
g5
I114
tp2718
I2711
s(g24
S'nantucket."<p>'
S'in?'
tp2719
I2712
s(g9
S'mr.'
S'to'
tp2720
I2714
s(g24
S'carpenter,'
S'it:'
tp2721
I2715
s(g22
S'cathcart'
S'point.'
tp2722
I2716
s(g20
I31
I1
tp2723
I2717
s(g22
S'edition.<p>'
S'1990.'
tp2724
I2338
s(g24
S'say'
S'guarantees,'
tp2725
I2719
s(g41
S'directors,'
tp2726
I1187
s(g7
I8
I8
tp2727
I2721
s(g121
I24
I9
tp2728
I3575
s(g4
g5
I31
tp2729
I2722
s(g9
S'kidder,'
S'mr.'
tp2730
I3478
s(g11
g339
S'control,'
tp2731
I2723
s(g11
g103
S'months.'
tp2732
I2724
s(g9
S'mr.'
g161
tp2733
I3086
s(g14
g5
I32
tp2734
I2725
s(g14
g5
I121
tp2735
I2726
s(g63
S'"we\'ve'
S'so'
tp2736
I2727
s(g20
I13
I2
tp2737
I2728
s(g11
S'says,'
S'hum."<p>'
tp2738
I2729
s(g66
I1
tp2739
I2730
s(g41
S'theme.'
tp2740
I2731
s(g52
g5
I57
tp2741
I2732
s(g9
S'instead'
g252
tp2742
I2733
s(g33
I60
tp2743
I2736
s(g41
S'says.<p>'
tp2744
I3435
s(g121
I21
I26
tp2745
I3171
s(g22
S'guarantees,'
S'binge'
tp2746
I2737
s(g7
I32
I2
tp2747
I2738
s(g61
S'finance.'
tp2748
I2739
s(g24
S'works'
S'home,'
tp2749
I2740
s(g121
I2
I1
tp2750
I2137
s(g195
S'"it'
tp2751
I2742
s(g20
I56
I15
tp2752
I2743
s(g209
I64
tp2753
I3682
s(g195
S'when'
tp2754
I2744
s(g9
S'"we'
S'says'
tp2755
I2745
s(g20
I2
I22
tp2756
I2746
s(g41
S'enough'
tp2757
I942
s(g18
S'its'
S'it'
tp2758
I2748
s(g22
S'carpenter,'
g252
tp2759
I2749
s(g24
S'world'
g96
tp2760
I2750
s(g16
I2
tp2761
I1472
s(g121
I17
I27
tp2762
I1475
s(g9
S'mr.'
S'there'
tp2763
I1495
s(g22
S'harder.<p>'
g125
tp2764
I1091
s(g43
g339
tp2765
I2756
s(g9
g87
S'according'
tp2766
I2965
s(g14
g5
I9
tp2767
I2757
s(g20
I7
I8
tp2768
I2758
s(g9
S'as'
S'mr.'
tp2769
I2687
s(g20
I10
I3
tp2770
I2759
s(g33
I51
tp2771
I2760
s(g24
S'bank.<p>'
S'period,'
tp2772
I2761
s(g9
S'in'
S'but'
tp2773
I2762
s(g52
g5
I64
tp2774
I2763
s(g24
S'late.'
S'past,"'
tp2775
I1555
s(g11
S'carpenter.<p>'
g125
tp2776
I1559
s(g9
S'he'
S'mr.'
tp2777
I2766
s(g61
S'sheehan.<p>'
tp2778
I2767
s(g372
I1052
tp2779
I2768
s(g9
S'but'
S'in'
tp2780
I2769
s(g18
S'so'
S"it's"
tp2781
I1594
s(g18
S'now,'
S'"i\'ve'
tp2782
I2771
s(g43
S'deals'
tp2783
I2772
s(g24
S'past,"'
S'theme.'
tp2784
I2773
s(g61
S'bickered.'
tp2785
I2774
s(g22
S'--'
S'point.'
tp2786
I2775
s(g11
S'disclosure'
S'instruments'
tp2787
I1950
s(g7
I18
I19
tp2788
I2776
s(g18
S'mr.'
g103
tp2789
I1724
s(g61
S'speculation.'
tp2790
I2778
s(g50
I120
tp2791
I2780
s(g46
S'was'
tp2792
I2921
s(g9
S'the'
S'with'
tp2793
I2782
s(g14
g56
I6
tp2794
I2783
s(g7
I53
I6
tp2795
I2784
s(g16
I9
tp2796
I2785
s(g33
I155
tp2797
I1675
s(g24
S'late.'
S'theme.'
tp2798
I3638
s(g11
S'that'
S'that.'
tp2799
I1683
s(g18
S'except'
S'but'
tp2800
I2788
s(g18
S'mr.'
S'"it'
tp2801
I2789
s(g195
S'however,'
tp2802
I2790
s(g18
S'everywhere,'
S'the'
tp2803
I1696
s(g18
S'the'
S'when'
tp2804
I1511
s(g22
S'investor,"'
S'finance.'
tp2805
I2793
s(g27
S'possibly'
tp2806
I2794
s(g18
S'"we\'ve'
g125
tp2807
I2795
s(g41
S'meltdown,'
tp2808
I461
s(g41
S'investor,"'
tp2809
I2797
s(g4
g5
I45
tp2810
I2798
s(g63
S'however,'
S'kidder'
tp2811
I1739
s(g22
S'that'
S'ge,'
tp2812
I2800
s(g9
S'when'
S'to'
tp2813
I3735
s(g7
I22
I6
tp2814
I3542
s(g9
S'the'
S'though'
tp2815
I2801
s(g7
I25
I3
tp2816
I1099
s(g14
g5
I18
tp2817
I2803
s(g372
I72
tp2818
I1763
s(g63
S'mr.'
S'refueling'
tp2819
I1770
s(g20
I4
I9
tp2820
I2806
s(g41
S'does'
tp2821
I2807
s(g7
I368
I3
tp2822
I2808
s(g18
S'the'
S'--'
tp2823
I2809
s(g41
S'edition.<p>'
tp2824
I2971
s(g52
g5
I87
tp2825
I843
s(g24
S'sheehan.<p>'
S'caution'
tp2826
I1815
s(g7
I2
I9
tp2827
I2813
s(g22
g161
S'kidder,'
tp2828
I2814
s(g7
I53
I1
tp2829
I3591
s(g209
I15
tp2830
I2816
s(g50
I1
tp2831
I2817
s(g9
S'which'
S'the'
tp2832
I2818
s(g22
S'results.<p>'
S'happen.<p>'
tp2833
I2819
s(g41
S'him.'
tp2834
I2820
s(g33
I146
tp2835
I167
s(g18
S'there'
S'and'
tp2836
I2822
s(g20
I44
I3
tp2837
I1909
s(g52
g5
I25
tp2838
I2824
s(g4
g5
I130
tp2839
I2825
s(g18
S'in'
S'as'
tp2840
I1923
s(g18
S'the'
S'all'
tp2841
I2827
s(g61
S'in'
tp2842
I2828
s(g41
S'executive'
tp2843
I2829
s(g63
g161
S'mr.'
tp2844
I2830
s(g33
I33
tp2845
I2831
s(g14
g5
I142
tp2846
I2832
s(g11
S'crack'
S'man"'
tp2847
I1964
s(g18
S"it's"
S'gary'
tp2848
I2834
s(g46
S'the'
tp2849
I3595
s(g121
I4
I17
tp2850
I2836
s(g22
S'hum."<p>'
S'says,'
tp2851
I2837
s(g7
I13
I15
tp2852
I2838
s(g9
S'in'
S'mainly'
tp2853
I3596
s(g43
S'bankers'
tp2854
I2840
s(g41
S'caution'
tp2855
I2011
s(g7
I48
I19
tp2856
I2842
s(g121
I20
I25
tp2857
I2843
s(g14
g5
I123
tp2858
I1488
s(g121
I13
I55
tp2859
I2973
s(g63
S'it'
S'in'
tp2860
I2846
s(g18
S'with'
S'as'
tp2861
I1115
s(g27
S'which'
tp2862
I3599
s(g9
S'as'
S'however,'
tp2863
I2849
s(g372
I48
tp2864
I2666
s(g20
I3
I1
tp2865
I2851
s(g50
I10
tp2866
I2852
s(g52
g5
I126
tp2867
I2853
s(g121
I19
I7
tp2868
I440
s(g11
S'entirely.'
S'speculation.'
tp2869
I2091
s(g33
I137
tp2870
I846
s(g4
g5
I102
tp2871
I2857
s(g22
S'one'
S'him.'
tp2872
I2858
s(g61
S'question,'
tp2873
I2859
s(g14
g5
I41
tp2874
I2860
s(g372
I19
tp2875
I2000
s(g41
S'study.'
tp2876
I2861
s(g7
I72
I5
tp2877
I2862
s(g33
I24
tp2878
I2139
s(g372
I12
tp2879
I3524
s(g9
S'its'
S'although'
tp2880
I2864
s(g121
I1
I12
tp2881
I2151
s(g18
S'wall'
S'gary'
tp2882
I2156
s(g195
S'racked'
tp2883
I2867
s(g7
I20
I17
tp2884
I2868
s(g52
g5
I32
tp2885
I2869
s(g9
S'"we'
S'than'
tp2886
I2870
s(g63
S'says'
S'--'
tp2887
I2871
s(g43
S'enough'
tp2888
I2872
s(g121
I32
I25
tp2889
I2873
s(g18
S'the'
S'never'
tp2890
I2874
s(g9
S'to'
S'says'
tp2891
I2875
s(g22
S'ideas'
S'confides'
tp2892
I2204
s(g14
g5
I151
tp2893
I2207
s(g9
S'so'
g125
tp2894
I2878
s(g50
I162
tp2895
I2879
s(g9
S'as'
S'turning'
tp2896
I2880
s(g11
S'man"'
S'in'
tp2897
I3605
s(g22
S'ge.'
g339
tp2898
I2881
s(g41
S'it:'
tp2899
I2882
s(g24
S'finance.'
S'firm,'
tp2900
I2883
s(g7
I12
I12
tp2901
I2884
s(g9
g35
S'as'
tp2902
I2885
s(g63
S'says'
S'"we'
tp2903
I2266
s(g50
I19
tp2904
I2887
s(g14
g5
I68
tp2905
I2888
s(g24
S'crack'
S'him.'
tp2906
I2889
s(g24
S'future.'
S'kidder.'
tp2907
I1745
s(g22
S'says'
S'investors.<p>'
tp2908
I2982
s(g18
S'the'
S'he'
tp2909
I2892
s(g20
I5
I10
tp2910
I2893
s(g33
I126
tp2911
I2957
s(g9
S'puts'
S'"we\'re'
tp2912
I1526
s(g121
I6
I2
tp2913
I2895
s(g121
I32
I132
tp2914
I607
s(g52
g5
I132
tp2915
I2897
s(g7
I4
I11
tp2916
I2350
s(g61
S'assets.'
tp2917
I3163
s(g33
I136
tp2918
I2899
s(g61
S'that.'
tp2919
I2900
s(g14
g5
I50
tp2920
I2901
s(g18
S'now,'
S'by'
tp2921
I2902
s(g195
S'again'
tp2922
I2903
s(g20
I10
I8
tp2923
I2905
s(g24
S'theme.'
g96
tp2924
I2394
s(g22
S'it:'
g35
tp2925
I2907
s(g121
I1
I19
tp2926
I2363
s(g43
S'instruments"'
tp2927
I2909
s(g27
S'only'
tp2928
I2910
s(g22
S'finance.'
S'course,'
tp2929
I2422
s(g50
I171
tp2930
I2912
s(g22
S'seven'
S'kidder.'
tp2931
I2913
s(g61
g161
tp2932
I2914
s(g121
I47
I58
tp2933
I2915
s(g27
S'except'
tp2934
I3133
s(g209
I18
tp2935
I2916
s(g11
S'up,'
S'bickered.'
tp2936
I2917
sS'NonEmpty-Queue'
p2937
I2918
s(g63
S'that'
S'a'
tp2938
I2919
s(g50
I20
tp2939
I1287
s(g41
S'paper,'
tp2940
I2477
s(g22
S'carpenter.<p>'
S'relationship,"'
tp2941
I2488
s(g18
S'wall'
S'according'
tp2942
I1119
s(g33
I135
tp2943
I2924
s(g24
S'says'
S'goals'
tp2944
I2290
s(g22
S'happen.<p>'
S'sheehan.<p>'
tp2945
I2926
s(g7
I15
I13
tp2946
I2927
s(g121
I29
I31
tp2947
I2928
s(g52
g5
I142
tp2948
I1752
s(g63
S'and'
S'the'
tp2949
I2930
s(g27
S'who'
tp2950
I2931
s(g61
S'harder.<p>'
tp2951
I2932
s(g372
I215
tp2952
I737
s(g46
g161
tp2953
I2934
s(g24
S'unit,'
S'carpenter.<p>'
tp2954
I2935
s(g9
S'the'
S'-lb-'
tp2955
I2936
s(g121
I12
I15
tp2956
I2990
s(g121
I11
I2
tp2957
I2620
s(g63
S'when'
S"it's"
tp2958
I1754
s(g372
I15
tp2959
I2991
s(g27
S'racked'
tp2960
I2941
s(g11
S'it:'
S'point."'
tp2961
I2602
s(g7
I10
I5
tp2962
I2943
s(g121
I39
I14
tp2963
I2944
s(g61
S'june.<p>'
tp2964
I2945
s(g18
S'however,'
S'but'
tp2965
I1813
s(g14
g5
I27
tp2966
I2947
s(g11
S'finance.'
S'tools'
tp2967
I2948
s(g9
S"it's"
S'gary'
tp2968
I2949
s(g20
I4
I2
tp2969
I2950
s(g24
S'say'
S'backfire'
tp2970
I2951
s(g24
S'future.'
S'says'
tp2971
I3026
s(g22
S'relationship,"'
S'that.'
tp2972
I2676
s(g121
I15
I14
tp2973
I2953
s(g20
I17
I5
tp2974
I1515
s(g41
S'time'
tp2975
I2955
s(g52
g5
I104
tp2976
I2956
s(g18
S'with'
S'kidder,'
tp2977
I2802
s(g43
S'assets.'
tp2978
I2959
s(g11
S'1990.'
S'edition.<p>'
tp2979
I2960
s(g24
S'bank.<p>'
S'executive'
tp2980
I2961
s(g372
I4
tp2981
I2962
s(g7
I5
I8
tp2982
I2856
s(g33
I13
tp2983
I2964
s(g63
S'mr.'
S'smiling'
tp2984
I1241
s(g18
S'smiling'
S'in'
tp2985
I2966
s(g22
S'forces,"'
S'executive'
tp2986
I2967
s(g121
I120
I51
tp2987
I2781
s(g14
g56
I20
tp2988
I2969
s(g27
S'"i\'d'
tp2989
I2970
s(g24
S'study.'
S'notes'
tp2990
I2810
s(g50
I58
tp2991
I2556
s(g121
I47
I637
tp2992
I2972
s(g18
S'retires'
S'"i\'ve'
tp2993
I2845
s(g24
S'january.'
S'says'
tp2994
I2974
s(g121
I11
I3
tp2995
I2975
s(g9
S'that'
S'however,'
tp2996
I2976
s(g18
S'in'
S'its'
tp2997
I2977
s(g63
S'he'
S'possibly'
tp2998
I2978
s(g52
g5
I78
tp2999
I2979
s(g27
S'-lb-'
tp3000
I2980
s(g50
I38
tp3001
I2886
s(g14
g5
I100
tp3002
I2891
s(g24
S'theme.'
S'strategy,'
tp3003
I2983
s(g9
S'in'
S'mr.'
tp3004
I3000
s(g20
I5
I5
tp3005
I2985
s(g22
S'point."'
g35
tp3006
I2986
s(g24
S'owns.'
S'kidder'
tp3007
I2988
s(g22
S'june.<p>'
S'harder.<p>'
tp3008
I2812
s(g63
S'puts'
S'as'
tp3009
I1040
s(g7
I31
I3
tp3010
I2937
s(g52
g5
I101
tp3011
I2940
s(g43
S'point.'
tp3012
I2992
s(g33
I4
tp3013
I2993
s(g4
g5
I109
tp3014
I2994
s(g9
S'that'
S'unless'
tp3015
I2963
s(g20
I69
I3
tp3016
I2996
s(g24
S'people.<p>'
S'goals'
tp3017
I2997
s(g11
g252
S'carpenter,'
tp3018
I2998
s(g61
S'goals'
tp3019
I2984
s(g18
S'there'
S'the'
tp3020
I3001
s(g11
g96
S'ideas'
tp3021
I3207
s(g22
S'--'
S'in'
tp3022
I3002
s(g20
I19
I1
tp3023
I3003
s(g18
S'there'
S'mr.'
tp3024
I3004
s(g9
S'chief'
S'now,'
tp3025
I3005
s(g52
g5
I23
tp3026
I3006
s(g50
I72
tp3027
I3437
s(g7
I1
I3
tp3028
I3007
s(g61
S'period,'
tp3029
I3008
s(g24
S'one."<p>'
S'year,'
tp3030
I2668
s(g41
S'speculation.'
tp3031
I3010
s(g52
g5
I36
tp3032
I2388
s(g20
I2
I4
tp3033
I3029
s(g18
S'through'
S"it's"
tp3034
I3626
s(g46
S'to'
tp3035
I3013
s(g14
g5
I128
tp3036
I3014
s(g20
I1
I2
tp3037
I3015
s(g50
I47
tp3038
I3016
s(g121
I7
I53
tp3039
I3017
s(g24
S'point.'
S'home,'
tp3040
I3018
s(g33
I108
tp3041
I3019
s(g20
I33
I5
tp3042
I3020
s(g24
S'edition.<p>'
S'-rb-'
tp3043
I3021
s(g24
S'skeptical.'
S'said:'
tp3044
I3022
s(g24
S'finance.'
S'sheehan.<p>'
tp3045
I3023
s(g372
I22
tp3046
I3024
s(g14
g5
I77
tp3047
I1879
s(g63
S'again'
S'as'
tp3048
I1921
s(g43
S'says'
tp3049
I3028
s(g18
S'so'
S'though'
tp3050
I1980
s(g24
S'investors.<p>'
g103
tp3051
I3030
s(g61
S'unit,'
tp3052
I3031
s(g20
I14
I19
tp3053
I3032
s(g11
S'megargel,'
S'flow."<p>'
tp3054
I3033
s(g18
S'without'
S'"we'
tp3055
I3034
s(g7
I8
I13
tp3056
I3035
s(g20
I32
I7
tp3057
I3036
s(g24
S'world'
S'--'
tp3058
I3037
s(g4
g5
I20
tp3059
I3038
s(g9
S'involving'
S'will'
tp3060
I3039
s(g63
S'the'
S'mr.'
tp3061
I2246
s(g9
S'only'
S'its'
tp3062
I3041
s(g14
g5
I59
tp3063
I3042
s(g24
S'one."<p>'
S'executive'
tp3064
I3009
s(g63
S'than'
S'"we'
tp3065
I3044
s(g16
I50
tp3066
I3045
s(g43
g96
tp3067
I3046
s(g121
I12
I1052
tp3068
I3047
s(g24
S'carpenter.<p>'
S'ge,'
tp3069
I3048
s(g20
I14
I4
tp3070
I3049
s(g41
S'in'
tp3071
I3050
s(g61
S'alternative"'
tp3072
I3011
s(g121
I6
I368
tp3073
I3052
s(g18
S'a'
S'while'
tp3074
I2099
s(g7
I58
I17
tp3075
I3053
s(g33
I99
tp3076
I1183
s(g14
g5
I147
tp3077
I3055
s(g7
I55
I22
tp3078
I3056
s(g121
I53
I22
tp3079
I3057
s(g7
I32
I7
tp3080
I3058
s(g22
g252
S'bickered.'
tp3081
I3059
s(g46
S'spencer'
tp3082
I3060
s(g61
S'in?'
tp3083
I3043
s(g403
I19
tp3084
I3061
s(g372
I17
tp3085
I3062
s(g14
g5
I126
tp3086
I3063
s(g24
S'says'
S'cathcart'
tp3087
I3064
s(g121
I2
I12
tp3088
I3065
s(g22
S'ge,'
S'out.<p>'
tp3089
I3066
s(g61
S'world'
tp3090
I3067
s(g24
S'off,'
S'place,'
tp3091
I3068
s(g46
S'except'
tp3092
I3069
s(g7
I15
I6
tp3093
I3070
s(g9
S'by'
S'--'
tp3094
I3071
s(g11
S'inc.'
S'notes'
tp3095
I3072
s(g61
S'cathcart'
tp3096
I3073
s(g46
S'but'
tp3097
I3074
s(g14
g5
I86
tp3098
I3075
s(g18
g161
S'"it'
tp3099
I3077
s(g18
S'mr.'
g125
tp3100
I3078
s(g27
S'all'
tp3101
I3079
s(g24
S'year.<p>'
S'does'
tp3102
I3080
s(g9
S'theoretically,'
S'possibly'
tp3103
I79
s(g121
I10
I9
tp3104
I3083
s(g16
I57
tp3105
I3084
s(g195
S'"we\'ve'
tp3106
I3085
s(g22
S'flow."<p>'
S'megargel,'
tp3107
I2995
s(g52
g5
I146
tp3108
I3087
s(g18
S'the'
S'ending'
tp3109
I3088
s(g63
S'more'
S'there'
tp3110
I3089
s(g18
S'refueling'
S'to'
tp3111
I3090
s(g14
g5
I4
tp3112
I3091
s(g20
I637
I8
tp3113
I3092
s(g195
S'not'
tp3114
I3093
s(g46
g252
tp3115
I2311
s(g22
S'question,'
S'speculation.'
tp3116
I1779
s(g9
S'so'
S'"we\'ve'
tp3117
I3095
s(g14
g5
I91
tp3118
I3096
s(g9
g252
S'says'
tp3119
I3097
s(g61
S'september.'
tp3120
I3098
s(g403
I10
tp3121
I3099
s(g52
g5
I69
tp3122
I3100
s(g372
I24
tp3123
I3101
s(g14
g56
I4
tp3124
I1155
s(g24
S'ideas'
S'opportunity'
tp3125
I3102
s(g4
g5
I77
tp3126
I3103
s(g18
S'as'
S'"we\'re'
tp3127
I3104
s(g7
I54
I9
tp3128
I3105
s(g22
S'says,'
S'peabody."'
tp3129
I3107
s(g9
S'through'
S'in'
tp3130
I3108
s(g61
S'ideas'
tp3131
I3109
s(g61
S'business."'
tp3132
I3110
s(g11
S'cathcart'
S'works'
tp3133
I3111
s(g24
S'ago.'
S'says'
tp3134
I3112
s(g14
g56
I3
tp3135
I3113
s(g16
I32
tp3136
I3114
s(g20
I171
I5
tp3137
I3115
s(g41
S'carpenter,'
tp3138
I3116
s(g18
S'mr.'
S'kidder'
tp3139
I3117
s(g41
S'skeptical.'
tp3140
I3118
s(g18
S'that'
S'unless'
tp3141
I3119
s(g11
S'1980s,'
S'powerhouse.'
tp3142
I3120
s(g7
I12
I7
tp3143
I3121
s(g121
I4
I3
tp3144
I3123
s(g20
I32
I3
tp3145
I3124
s(g33
I81
tp3146
I3125
s(g24
S'assets.'
S'far,'
tp3147
I517
s(g121
I17
I7
tp3148
I3127
s(g63
S'to'
S'the'
tp3149
I3128
s(g9
S'the'
S'will'
tp3150
I3129
s(g403
I5
tp3151
I3130
s(g121
I6
I9
tp3152
I2090
s(g18
S'kidder,'
S'smiling'
tp3153
I2939
s(g61
S'megargel,'
tp3154
I3132
s(g63
S'mr.'
S'with'
tp3155
I2407
s(g121
I84
I132
tp3156
I3134
s(g18
S'which'
S'--'
tp3157
I3135
s(g24
S'him.'
S'says.<p>'
tp3158
I458
s(g121
I18
I3
tp3159
I62
s(g20
I505
I8
tp3160
I70
s(g18
S'so'
g125
tp3161
I3644
s(g22
S'bickered.'
S'carpenter.<p>'
tp3162
I3140
s(g24
S'trimmed'
S'says'
tp3163
I3141
s(g195
S'kidder,'
tp3164
I3142
s(g20
I183
I6
tp3165
I3143
s(g50
I90
tp3166
I3144
s(g20
I12
I1
tp3167
I3145
s(g16
I39
tp3168
I123
s(g20
I2
I11
tp3169
I3147
s(g20
I25
I9
tp3170
I135
s(g7
I20
I3
tp3171
I3149
s(g11
S'directors,'
S'kidder.'
tp3172
I1220
s(g20
I11
I8
tp3173
I1482
s(g121
I26
I12
tp3174
I1021
s(g403
I12
tp3175
I3152
s(g22
S'says,'
S'year,'
tp3176
I2073
s(g63
S'mr.'
S'the'
tp3177
I3155
s(g33
I72
tp3178
I3156
s(g195
S'ge'
tp3179
I3158
s(g14
g5
I137
tp3180
I202
s(g121
I72
I215
tp3181
I3160
s(g20
I1
I9
tp3182
I3161
s(g11
S'operations.'
S'january.'
tp3183
I3354
s(g43
S'point."'
tp3184
I238
s(g9
S'without'
S'a'
tp3185
I227
s(g24
S'him.'
S'times,"'
tp3186
I270
s(g121
I5
I4
tp3187
I3165
s(g24
S'says,'
g35
tp3188
I2400
s(g27
g252
tp3189
I102
s(g121
I6
I12
tp3190
I3168
s(g20
I55
I13
tp3191
I3169
s(g33
I150
tp3192
I3235
s(g24
S'inc.'
S'say'
tp3193
I3170
s(g18
S'in'
g35
tp3194
I274
s(g41
S'cathcart,'
tp3195
I3172
s(g14
g5
I118
tp3196
I3173
s(g61
S'directors,'
tp3197
I3174
s(g52
g5
I95
tp3198
I3175
s(g9
S'one'
S'was'
tp3199
I3176
s(g9
S'the'
S'in'
tp3200
I333
s(g52
g5
I115
tp3201
I3178
s(g7
I5
I7
tp3202
I3179
s(g4
g5
I27
tp3203
I357
s(g24
S'says'
S'cathcart,'
tp3204
I3181
s(g14
g5
I36
tp3205
I3182
s(g22
S'carpenter,'
S'bickered.'
tp3206
I3183
s(g20
I6
I7
tp3207
I3184
s(g22
S'history.'
S'inc.'
tp3208
I3186
s(g33
I79
tp3209
I393
s(g22
S'entirely.'
S'co.,'
tp3210
I2419
s(g9
S'that'
S'the'
tp3211
I3189
s(g20
I38
I8
tp3212
I3190
s(g24
S'trading.<p>'
g161
tp3213
I3191
s(g33
I31
tp3214
I2896
s(g7
I23
I2
tp3215
I2397
s(g372
I53
tp3216
I3193
s(g7
I4
I7
tp3217
I2421
s(g22
S'world'
S'theme.'
tp3218
I3196
s(g61
S'--'
tp3219
I3197
s(g14
g5
I146
tp3220
I3199
s(g7
I132
I17
tp3221
I3200
s(g24
S'confides'
S'nantucket."<p>'
tp3222
I3201
s(g14
g5
I1
tp3223
I1799
s(g121
I15
I132
tp3224
I3202
s(g46
S'smiling'
tp3225
I3203
s(g11
S'says'
S'kidder,'
tp3226
I3204
s(g22
S'happen.<p>'
S'finance.'
tp3227
I3205
s(g121
I9
I20
tp3228
I3206
s(g7
I12
I9
tp3229
I892
s(g18
S'however,'
S'unless'
tp3230
I3208
s(g52
g5
I139
tp3231
I3209
s(g24
S'investors.<p>'
S'operations.'
tp3232
I3210
s(g41
S'that.'
tp3233
I3211
s(g14
g5
I95
tp3234
I3213
s(g16
I21
tp3235
I3214
s(g43
S'says.<p>'
tp3236
I839
s(g66
I15
tp3237
I3217
s(g27
S'not'
tp3238
I539
s(g33
I128
tp3239
I2890
s(g11
S'powerhouse.'
S'said:'
tp3240
I3219
s(g20
I9
I3
tp3241
I3220
s(g46
S'"i\'d'
tp3242
I3221
s(g9
S'without'
S'that'
tp3243
I3222
s(g22
S'trading.<p>'
S'enough'
tp3244
I3040
s(g33
I70
tp3245
I3224
s(g20
I12
I6
tp3246
I3225
s(g52
g5
I153
tp3247
I3226
s(g24
S'relationship,"'
g125
tp3248
I589
s(g11
S'says.'
g87
tp3249
I596
s(g46
S'one'
tp3250
I3229
s(g52
g5
I15
tp3251
I2162
s(g9
S'was'
S'the'
tp3252
I3230
s(g14
g5
I13
tp3253
I3231
s(g9
S'to'
S'as'
tp3254
I3232
s(g20
I7
I7
tp3255
I3233
s(g20
I10
I7
tp3256
I3234
s(g46
S'wall'
tp3257
I2429
s(g22
S'alternative"'
S'kidder.'
tp3258
I3236
s(g22
S'ago.'
S'back.<p>'
tp3259
I3237
s(g52
g5
I76
tp3260
I3238
s(g52
g5
I85
tp3261
I3239
s(g24
g35
S'point."'
tp3262
I3240
s(g7
I3
I10
tp3263
I3241
s(g4
g5
I84
tp3264
I683
s(g18
S'yet,'
S'the'
tp3265
I3243
s(g33
I133
tp3266
I3244
s(g52
g5
I94
tp3267
I2690
s(g9
S'he'
S'smiling'
tp3268
I2734
s(g20
I15
I11
tp3269
I3246
s(g20
I21
I8
tp3270
I728
s(g18
g125
S'that'
tp3271
I3248
s(g61
g87
tp3272
I3249
s(g121
I3
I6
tp3273
I3250
s(g11
S'forces,"'
g103
tp3274
I3251
s(g41
S'happen.<p>'
tp3275
I3252
s(g11
S'future.'
S'cathcart,'
tp3276
I3253
s(g63
S'the'
S'one'
tp3277
I3254
s(g33
I61
tp3278
I3255
s(g43
S'broadly'
tp3279
I795
s(g41
S'forces,"'
tp3280
I1808
s(g63
S'says'
S'they'
tp3281
I3258
s(g20
I3
I9
tp3282
I3259
s(g121
I10
I31
tp3283
I3261
s(g121
I8
I43
tp3284
I3262
s(g43
S'notes'
tp3285
I3153
s(g61
S'investors.<p>'
tp3286
I3264
s(g18
S'"we\'ve'
S'you'
tp3287
I3265
s(g4
g5
I41
tp3288
I3266
s(g22
S'happen.<p>'
S'caution'
tp3289
I3267
s(g18
S'mr.'
S'the'
tp3290
I3268
s(g14
g5
I22
tp3291
I3269
s(g24
S'in?'
S'speculation'
tp3292
I3270
s(g20
I4
I5
tp3293
I3271
s(g11
S'firm,'
S'inc.'
tp3294
I1319
s(g121
I75
I15
tp3295
I3273
s(g63
S'to'
S'with'
tp3296
I3274
s(g27
S'according'
tp3297
I3275
s(g9
S'when'
S'gary'
tp3298
I3276
s(g52
g5
I137
tp3299
I3277
s(g52
g5
I83
tp3300
I3278
s(g24
S'caution'
S'firm,'
tp3301
I3279
s(g16
I3
tp3302
I3280
s(g121
I24
I15
tp3303
I2438
s(g4
g5
I123
tp3304
I3281
s(g52
g5
I62
tp3305
I3282
s(g7
I17
I8
tp3306
I3283
s(g7
I69
I1
tp3307
I3284
s(g9
S'"the'
S'he'
tp3308
I3285
s(g50
I48
tp3309
I3286
s(g63
S'the'
g161
tp3310
I2779
s(g63
S"it's"
S'now,'
tp3311
I3051
s(g20
I12
I10
tp3312
I1008
s(g33
I52
tp3313
I1015
s(g7
I1052
I3
tp3314
I783
s(g18
S'to'
S'they'
tp3315
I3292
s(g7
I27
I3
tp3316
I3293
s(g121
I15
I93
tp3317
I3667
s(g20
I47
I17
tp3318
I3294
s(g7
I20
I10
tp3319
I3295
s(g52
g5
I5
tp3320
I3296
s(g4
g5
I142
tp3321
I2317
s(g7
I14
I7
tp3322
I3298
s(g7
I1
I17
tp3323
I3299
s(g24
S'months.'
S'says'
tp3324
I3082
s(g14
g56
I17
tp3325
I3301
s(g18
S'kidder,'
S'now,'
tp3326
I3302
s(g22
S'carpenter,'
S'broadly'
tp3327
I1247
s(g7
I84
I4
tp3328
I3304
s(g9
S'which'
S'you'
tp3329
I3305
s(g11
S'off,'
S'stress'
tp3330
I3306
s(g22
S'caution'
S'camps.'
tp3331
I780
s(g27
S'a'
tp3332
I3054
s(g7
I20
I9
tp3333
I2211
s(g61
S'trading.<p>'
tp3334
I1124
s(g20
I15
I7
tp3335
I1818
s(g24
S'confides'
S'opportunity'
tp3336
I3311
s(g20
I58
I7
tp3337
I3312
s(g4
g56
I5
tp3338
I1152
s(g14
g5
I127
tp3339
I3314
s(g61
S'plans.'
tp3340
I3315
s(g16
I10
tp3341
I3316
s(g33
I156
tp3342
I3122
s(g20
I5
I2
tp3343
I3318
s(g20
I8
I5
tp3344
I3319
s(g121
I14
I31
tp3345
I2624
s(g24
g339
S'goals'
tp3346
I3321
s(g52
g5
I122
tp3347
I3322
s(g61
S'1990.'
tp3348
I3323
s(g121
I16
I33
tp3349
I3324
s(g33
I43
tp3350
I1216
s(g22
S'said:'
S'powerhouse.'
tp3351
I3326
s(g24
S'times,"'
S'broadly'
tp3352
I3327
s(g14
g5
I45
tp3353
I1251
s(g7
I37
I9
tp3354
I3329
s(g24
S'does'
S'kidder.'
tp3355
I3330
s(g20
I13
I13
tp3356
I3331
s(g18
S'everywhere,'
g96
tp3357
I3332
s(g7
I69
I10
tp3358
I3333
s(g7
I26
I4
tp3359
I1290
s(g9
S"it's"
S'when'
tp3360
I2661
s(g121
I9
I55
tp3361
I1823
s(g52
g5
I44
tp3362
I3337
s(g46
S'-lb-'
tp3363
I3338
s(g7
I1
I6
tp3364
I3528
s(g61
S'carpenter,'
tp3365
I3340
s(g14
g56
I40
tp3366
I3341
s(g7
I55
I8
tp3367
I3342
s(g209
I14
tp3368
I3343
s(g14
g5
I155
tp3369
I3344
s(g121
I32
I2
tp3370
I3345
s(g24
S'kidder,'
S'one'
tp3371
I1364
s(g9
S'yet,'
S'"we\'ve'
tp3372
I3348
s(g33
I147
tp3373
I3349
s(g121
I22
I53
tp3374
I3350
s(g43
S'directors,'
tp3375
I3351
s(g24
S'years'
S'edition.<p>'
tp3376
I3448
s(g7
I25
I8
tp3377
I3352
s(g14
g5
I72
tp3378
I3353
s(g372
I58
tp3379
I1835
s(g33
I34
tp3380
I3355
s(g9
S'gary'
S'"i\'d'
tp3381
I3356
s(g43
S'executive'
tp3382
I3357
s(g41
S'strategy,'
tp3383
I3358
s(g20
I34
I12
tp3384
I3359
s(g16
I34
tp3385
I2671
s(g4
g5
I9
tp3386
I3362
s(g61
S'cutting.'
tp3387
I3678
s(g61
S'paper,'
tp3388
I3364
s(g50
I152
tp3389
I1509
s(g14
g5
I54
tp3390
I3366
s(g61
S'months.'
tp3391
I3368
s(g20
I13
I20
tp3392
I3369
s(g18
S'without'
S'about'
tp3393
I2216
s(g209
I7
tp3394
I3371
s(g195
S'while'
tp3395
I3372
s(g18
S'"the'
S'when'
tp3396
I2643
s(g22
S'directors,'
S'cathcart,'
tp3397
I3194
s(g52
g5
I51
tp3398
I3375
s(g20
I48
I8
tp3399
I3376
s(g4
g56
I129
tp3400
I1372
s(g4
g5
I91
tp3401
I3378
s(g24
S'cutting.'
S'business'
tp3402
I3379
s(g43
S'ideas'
tp3403
I3380
s(g63
S'--'
S'a'
tp3404
I3381
s(g61
S'course,'
tp3405
I3382
s(g18
S'one'
S'so'
tp3406
I3383
s(g20
I188
I6
tp3407
I3384
s(g20
I14
I6
tp3408
I3385
s(g18
S'"we\'ve'
S"it's"
tp3409
I1632
s(g121
I5
I33
tp3410
I1637
s(g121
I2
I11
tp3411
I1438
s(g7
I66
I5
tp3412
I3313
s(g121
I7
I37
tp3413
I3390
s(g9
S'"it'
S'i'
tp3414
I3198
s(g18
S'a'
S'the'
tp3415
I1662
s(g9
S'so'
S'the'
tp3416
I3393
s(g20
I56
I5
tp3417
I1669
s(g41
S'goals'
tp3418
I3395
s(g14
g5
I81
tp3419
I3396
s(g7
I13
I11
tp3420
I2362
s(g33
I116
tp3421
I2454
s(g43
S'year.<p>'
tp3422
I3398
s(g9
S'the'
g87
tp3423
I3399
s(g24
S'carpenter,'
S'year,'
tp3424
I2255
s(g18
S'adding'
S'smiling'
tp3425
I3400
s(g11
S'dwight,'
S'september.'
tp3426
I3401
s(g41
S'firm,'
tp3427
I1719
s(g9
S'mr.'
g103
tp3428
I3403
s(g27
S'mainly'
tp3429
I3627
s(g61
S'say'
tp3430
I3404
s(g18
S'that'
S'could'
tp3431
I3405
s(g52
g5
I151
tp3432
I1750
s(g43
S'1986'
tp3433
I1764
s(g50
I18
tp3434
I3408
s(g27
S'spencer'
tp3435
I3409
s(g22
S'home,'
S'--'
tp3436
I3410
s(g14
g5
I31
tp3437
I3411
s(g9
S'a'
S'everywhere,'
tp3438
I601
s(g20
I93
I8
tp3439
I1786
s(g33
I129
tp3440
I3414
s(g63
S'when'
S'"the'
tp3441
I3415
s(g7
I31
I11
tp3442
I2043
s(g22
S'investors.<p>'
S'skeptical.'
tp3443
I3416
s(g20
I17
I4
tp3444
I3417
s(g9
S'in'
S'its'
tp3445
I1817
s(g121
I12
I34
tp3446
I3419
s(g11
S'place,'
S'harder.<p>'
tp3447
I3420
s(g7
I3
I4
tp3448
I3421
s(g7
I2
I20
tp3449
I1844
s(g22
S'up,'
S'far,'
tp3450
I3423
s(g403
I32
tp3451
I3424
s(g18
S'a'
S'that'
tp3452
I3425
s(g61
S'instruments"'
tp3453
I3691
s(g24
S'says.<p>'
S'says'
tp3454
I3427
s(g9
S'says'
g125
tp3455
I3428
s(g63
S'mainly'
S'in'
tp3456
I3429
s(g41
S'unit,'
tp3457
I3430
s(g20
I18
I6
tp3458
I3431
s(g121
I5
I56
tp3459
I3432
s(g121
I3
I8
tp3460
I3433
s(g18
S'that'
S'a'
tp3461
I3434
s(g11
S'investors.<p>'
S'executive'
tp3462
I1842
s(g41
S'gone.<p>'
tp3463
I3436
s(g121
I6
I22
tp3464
I3081
s(g52
g5
I12
tp3465
I3438
s(g4
g5
I149
tp3466
I1932
s(g41
S'attack,'
tp3467
I3440
s(g41
S'in?'
tp3468
I3441
s(g18
S'kidder,'
S'chief'
tp3469
I1954
s(g18
S'mr.'
S'to'
tp3470
I3443
s(g52
g5
I22
tp3471
I2203
s(g209
I17
tp3472
I3444
s(g22
S'results.<p>'
S'backfire'
tp3473
I3445
s(g50
I27
tp3474
I3446
s(g121
I4
I6
tp3475
I1256
s(g33
I120
tp3476
I273
s(g22
S'past,"'
S'harder'
tp3477
I2004
s(g14
g5
I131
tp3478
I3450
s(g22
S'bankers'
S'succeed.'
tp3479
I3451
s(g121
I38
I55
tp3480
I3452
s(g9
S'mr.'
S'as'
tp3481
I2958
s(g41
S'disclosure'
tp3482
I3454
s(g14
g5
I104
tp3483
I3455
s(g33
I23
tp3484
I3456
s(g46
g35
tp3485
I3457
s(g20
I11
I22
tp3486
I3459
s(g18
S'kidder'
S'the'
tp3487
I3460
s(g63
S'possibly'
S'retires'
tp3488
I3461
s(g63
S'everywhere,'
S'a'
tp3489
I2466
s(g52
g5
I97
tp3490
I3463
s(g9
S'with'
S'to'
tp3491
I3464
s(g11
S'result:'
S'inc.'
tp3492
I3465
s(g7
I2
I3
tp3493
I3466
s(g4
g5
I105
tp3494
I3467
s(g4
g5
I59
tp3495
I3468
s(g11
S'man"'
S'him.'
tp3496
I3469
s(g63
S'kidder'
S'without'
tp3497
I3471
s(g50
I22
tp3498
I1849
s(g24
S'carpenter.<p>'
S'opportunity'
tp3499
I3473
s(g22
S'1980s,'
S'co.'
tp3500
I3474
s(g41
S'period,'
tp3501
I3475
s(g63
S'as'
g35
tp3502
I3476
s(g14
g5
I23
tp3503
I2468
s(g9
S'in'
S'kidder'
tp3504
I3212
s(g18
S'mr.'
S'he'
tp3505
I3699
s(g4
g5
I28
tp3506
I1507
s(g61
S'bankers'
tp3507
I3480
s(g41
S'history.'
tp3508
I3481
s(g52
g5
I19
tp3509
I3482
s(g20
I21
I7
tp3510
I3386
s(g33
I127
tp3511
I3483
s(g9
S'kidder'
S'the'
tp3512
I3484
s(g41
S'backfire'
tp3513
I3485
s(g121
I19
I10
tp3514
I3486
s(g11
S'that.'
S'relationship,"'
tp3515
I3487
s(g14
g5
I132
tp3516
I3488
s(g195
S'"we'
tp3517
I2238
s(g22
S'year.<p>'
S'year,'
tp3518
I3490
s(g63
g125
S'so'
tp3519
I3491
s(g61
S'profit,'
tp3520
I3492
s(g121
I5
I1
tp3521
I3493
s(g63
S'mr.'
S'kidder,'
tp3522
I1852
s(g52
g5
I124
tp3523
I3495
s(g7
I19
I2
tp3524
I3496
s(g121
I25
I23
tp3525
I3497
s(g52
g5
I106
tp3526
I3498
s(g18
S'so'
S'with'
tp3527
I3703
s(g41
S'relationship,"'
tp3528
I2274
s(g18
S'without'
S'kidder'
tp3529
I3501
s(g14
g56
I81
tp3530
I3502
s(g14
g5
I113
tp3531
I3503
s(g22
S'meltdown,'
S'back.<p>'
tp3532
I3504
s(g61
g339
tp3533
I3505
s(g24
S'year,'
S'out.<p>'
tp3534
I2320
s(g20
I33
I10
tp3535
I1551
s(g50
I180
tp3536
I3507
s(g121
I1
I84
tp3537
I3508
s(g22
S'skeptical.'
S'bank.<p>'
tp3538
I3509
s(g121
I13
I12
tp3539
I3510
s(g63
S'"we\'re'
S'as'
tp3540
I3511
s(g121
I19
I13
tp3541
I3479
s(g33
I90
tp3542
I3094
s(g7
I5
I2
tp3543
I3513
s(g4
g5
I16
tp3544
I2365
s(g43
S'course,'
tp3545
I3515
s(g121
I10
I12
tp3546
I3742
s(g41
S'seven'
tp3547
I2378
s(g14
g5
I63
tp3548
I3517
s(g20
I6
I10
tp3549
I3518
s(g33
I118
tp3550
I2401
s(g22
S'gone.<p>'
S'ago.'
tp3551
I3520
s(g52
g5
I90
tp3552
I3521
s(g24
S'harder.<p>'
S'theme.'
tp3553
I1854
s(g9
S'yet,'
S'the'
tp3554
I3523
s(g52
g5
I58
tp3555
I2052
s(g27
S'unless'
tp3556
I3525
s(g20
I48
I1
tp3557
I3526
s(g33
I5
tp3558
I3527
s(g18
S'mr.'
S'however,'
tp3559
I3529
s(g61
S'history.'
tp3560
I3530
s(g63
S'kidder,'
S'to'
tp3561
I3531
s(g24
S'operations.'
S'trimmed'
tp3562
I3710
s(g121
I20
I19
tp3563
I3533
s(g9
S'says'
g96
tp3564
I3534
s(g11
S'people.<p>'
S'says'
tp3565
I3535
s(g27
g96
tp3566
I3536
s(g24
S'does'
S'executive'
tp3567
I3711
s(g9
S'the'
S'smiling'
tp3568
I1737
s(g46
S'they'
tp3569
I2544
s(g46
S'kidder,'
tp3570
I3540
s(g9
S'now,'
S'with'
tp3571
I2551
s(g24
S'finance.'
S'investor,"'
tp3572
I808
s(g7
I16
I12
tp3573
I2293
s(g33
I65
tp3574
I3126
s(g4
g5
I122
tp3575
I3544
s(g9
S'now,'
S'all'
tp3576
I3545
s(g61
S'land'
tp3577
I3546
s(g63
S'smiling'
S'the'
tp3578
I3547
s(g22
S'says.<p>'
S'results.<p>'
tp3579
I1049
s(g9
S'unless'
S'the'
tp3580
I3027
s(g20
I3
I4
tp3581
I3339
s(g121
I6
I18
tp3582
I3551
s(g61
S'backfire'
tp3583
I1300
s(g9
S'mr.'
S'the'
tp3584
I2606
s(g22
S'assets.'
S'unit,'
tp3585
I3553
s(g33
I109
tp3586
I3554
s(g18
S'by'
S'he'
tp3587
I3555
s(g7
I11
I8
tp3588
I2617
s(g7
I3
I1
tp3589
I3557
s(g7
I4
I1
tp3590
I3558
s(g63
S'mr.'
S'in'
tp3591
I3260
s(g372
I23
tp3592
I3560
s(g33
I117
tp3593
I3561
s(g14
g5
I8
tp3594
I3562
s(g24
S'that.'
g125
tp3595
I3563
s(g20
I7
I9
tp3596
I3564
s(g24
g125
S'place,'
tp3597
I3565
s(g9
S'not'
S'as'
tp3598
I1248
s(g43
S'speculation.'
tp3599
I2682
s(g20
I17
I11
tp3600
I3568
s(g50
I5
tp3601
I3569
s(g121
I11
I7
tp3602
I3449
s(g41
g125
tp3603
I1868
s(g52
g5
I65
tp3604
I3570
s(g7
I22
I2
tp3605
I3571
s(g9
S'as'
S'they'
tp3606
I3572
s(g9
S'a'
S'"we'
tp3607
I3573
s(g11
S'broadly'
S'carpenter,'
tp3608
I2500
s(g4
g5
I73
tp3609
I3576
s(g7
I34
I15
tp3610
I3577
s(g24
S'deal,'
g87
tp3611
I3578
s(g43
S'kidder,'
tp3612
I3579
s(g24
S'trading.<p>'
S'finance.'
tp3613
I3580
s(g121
I1
I10
tp3614
I3581
s(g20
I15
I12
tp3615
I3582
s(g18
S'mr.'
S'there'
tp3616
I3583
s(g18
g125
S'the'
tp3617
I3584
s(g121
I3
I3
tp3618
I3585
s(g22
S'assets.'
S'1986'
tp3619
I1009
s(g22
S'late.'
S'harder.<p>'
tp3620
I3587
s(g22
S'people.<p>'
S'january.'
tp3621
I2792
s(g24
S'results.<p>'
S'says'
tp3622
I3589
s(g22
S'results.<p>'
S'history.'
tp3623
I3692
s(g14
g56
I7
tp3624
I3590
s(g33
I100
tp3625
I2815
s(g24
S'strategy,'
g96
tp3626
I3592
s(g22
S'defections.'
S'back.<p>'
tp3627
I3593
s(g27
S'again'
tp3628
I3594
s(g22
S'that.'
S'that'
tp3629
I2835
s(g403
I16
tp3630
I2839
s(g20
I111
I5
tp3631
I3597
s(g20
I22
I9
tp3632
I3598
s(g41
S'says,'
tp3633
I2848
s(g18
S'without'
S'everywhere,'
tp3634
I3721
s(g22
S'broadly'
S'says.<p>'
tp3635
I3600
s(g9
S'involving'
S'could'
tp3636
I2430
s(g121
I8
I38
tp3637
I3602
s(g121
I290
I215
tp3638
I1670
s(g22
S'harder.<p>'
S'stress'
tp3639
I2741
s(g18
S'gary'
S'in'
tp3640
I2554
s(g22
S'owns.'
S'point.'
tp3641
I3606
s(g22
g125
S'carpenter.<p>'
tp3642
I3607
s(g7
I48
I9
tp3643
I3608
s(g121
I218
I72
tp3644
I3609
s(g14
g5
I17
tp3645
I2904
s(g22
S'-rb-'
S'instruments"'
tp3646
I3611
s(g27
S'"we\'ve'
tp3647
I3612
s(g20
I4
I8
tp3648
I3613
s(g121
I7
I25
tp3649
I2654
s(g121
I2
I132
tp3650
I3614
s(g121
I9
I33
tp3651
I3615
s(g43
S'in'
tp3652
I3616
s(g63
S'who'
S'mr.'
tp3653
I1876
s(g41
S'control,'
tp3654
I3618
s(g195
S'with'
tp3655
I3619
s(g18
S'--'
S'when'
tp3656
I2968
s(g4
g5
I112
tp3657
I3621
s(g9
S'he'
S'"i\'ve'
tp3658
I3622
s(g24
S'year.<p>'
S'executive'
tp3659
I3623
s(g50
I56
tp3660
I3624
s(g7
I7
I2
tp3661
I1994
s(g33
I91
tp3662
I3012
s(g18
g125
S'to'
tp3663
I1711
s(g121
I3
I26
tp3664
I1060
s(g403
I11
tp3665
I3629
s(g52
g5
I26
tp3666
I3630
s(g372
I25
tp3667
I3631
s(g27
S'chief'
tp3668
I3632
s(g195
S'never'
tp3669
I3633
s(g14
g5
I153
tp3670
I3634
s(g18
S'by'
S'"i\'ve'
tp3671
I3635
s(g18
S'however,'
S'kidder'
tp3672
I3636
s(g14
g5
I141
tp3673
I3637
s(g20
I23
I10
tp3674
I3106
s(g20
I20
I18
tp3675
I3639
s(g20
I368
I6
tp3676
I3640
s(g61
S'business'
tp3677
I3641
s(g14
g56
I16
tp3678
I2496
s(g20
I55
I9
tp3679
I3642
s(g195
S'about'
tp3680
I3643
s(g61
S'it:'
tp3681
I1432
s(g41
g339
tp3682
I2876
s(g14
g5
I122
tp3683
I3159
s(g9
S'says'
S'theoretically,'
tp3684
I3646
s(g22
S'off,'
S'deals'
tp3685
I3647
s(g7
I15
I12
tp3686
I3729
s(g18
S'now,'
S'with'
tp3687
I3649
s(g52
g5
I127
tp3688
I917
s(g33
I82
tp3689
I3458
s(g22
S'instruments'
S'disclosure'
tp3690
I3652
s(g121
I25
I13
tp3691
I3653
s(g20
I42
I3
tp3692
I3654
s(g209
I21
tp3693
I1884
s(g9
S'mr.'
S'kidder'
tp3694
I3656
s(g18
S'"we\'ve'
S'says'
tp3695
I3247
s(g14
g5
I40
tp3696
I3658
s(g20
I6
I3
tp3697
I3659
s(g11
S'kidder.'
S'attack,'
tp3698
I3660
s(g20
I105
I17
tp3699
I3661
s(g121
I7
I11
tp3700
I3215
s(g18
S'wall'
S"it's"
tp3701
I3663
s(g7
I8
I7
tp3702
I2371
s(g121
I1
I13
tp3703
I3665
s(g11
S'year.<p>'
S'business'
tp3704
I3666
s(g22
S'1986'
S'goals'
tp3705
I3139
s(g20
I45
I5
tp3706
I1748
s(g9
S'adding'
S'smiling'
tp3707
I2713
s(g24
S'june.<p>'
S'opportunity'
tp3708
I3670
s(g9
S'still,'
S'the'
tp3709
I3671
s(g24
S'back.<p>'
S'ago.'
tp3710
I3732
s(g14
g5
I150
tp3711
I3673
s(g11
g87
S'megargel,'
tp3712
I3674
s(g61
S'caution'
tp3713
I3675
s(g16
I40
tp3714
I3676
s(g18
S'kidder,'
S'so'
tp3715
I3677
s(g22
S'carpenter.<p>'
S'carpenter.<p>'
tp3716
I3363
s(g9
S'theoretically,'
S'however,'
tp3717
I3679
s(g18
S'with'
S'kidder'
tp3718
I3367
s(g121
I11
I32
tp3719
I3681
s(g24
S'him.'
S'broadly'
tp3720
I3320
s(g18
S'as'
S'says'
tp3721
I3683
s(g7
I12
I13
tp3722
I3684
s(g50
I637
tp3723
I3685
s(g61
S'-rb-'
tp3724
I3686
s(g9
S'that'
S'while'
tp3725
I3687
s(g195
g96
tp3726
I3688
s(g14
g5
I89
tp3727
I609
s(g33
I73
tp3728
I3690
s(g24
S'stress'
S'night;'
tp3729
I3426
s(g11
S'times,"'
S'says.<p>'
tp3730
I1631
s(g9
S'when'
S'was'
tp3731
I3693
s(g372
I43
tp3732
I3694
s(g14
g5
I82
tp3733
I2599
s(g24
S'skeptical.'
S'1980s,'
tp3734
I3695
s(g121
I13
I2
tp3735
I3696
s(g121
I105
I25
tp3736
I3288
s(g24
S'result:'
S'notes'
tp3737
I3698
s(g16
I121
tp3738
I2271
s(g52
g5
I133
tp3739
I3700
s(g4
g5
I14
tp3740
I3701
s(g18
S'however,'
S'the'
tp3741
I2850
s(g9
S'but'
S'kidder'
tp3742
I3499
s(g14
g5
I49
tp3743
I3704
s(g403
I2
tp3744
I3655
s(g121
I66
I9
tp3745
I3705
s(g195
S'one'
tp3746
I2457
s(g63
S'could'
S'that'
tp3747
I3707
s(g16
I131
tp3748
I3708
s(g9
S'in'
g35
tp3749
I3532
s(g22
S'cutting.'
S'profit,'
tp3750
I3537
s(g121
I14
I12
tp3751
I3712
s(g61
S'works'
tp3752
I3713
s(g24
S'says,'
S'ge,'
tp3753
I1258
s(g43
S'cathcart'
tp3754
I3715
s(g43
S'profit,'
tp3755
I2854
s(g41
S'bank.<p>'
tp3756
I3716
s(g18
S'with'
S'to'
tp3757
I3717
s(g24
S'defections.'
S'gone.<p>'
tp3758
I3718
s(g209
I89
tp3759
I3719
s(g46
S'a'
tp3760
I3720
s(g46
S'"the'
tp3761
I3291
s(g43
S'strategy,'
tp3762
I3628
s(g9
S'it'
S'except'
tp3763
I3610
s(g27
S'about'
tp3764
I3723
s(g33
I64
tp3765
I3724
s(g7
I12
I20
tp3766
I3725
s(g7
I25
I18
tp3767
I3726
s(g46
S'only'
tp3768
I3727
s(g121
I9
I7
tp3769
I3728
s(g24
S'out.<p>'
S'that.'
tp3770
I3648
s(g121
I215
I132
tp3771
I3730
s(g46
S'which'
tp3772
I3731
s(g61
S'gone.<p>'
tp3773
I3672
s(g24
S'kidder.'
S'says.'
tp3774
I3733
s(g11
S'bankers,'
S'camps.'
tp3775
I3734
s(g14
g5
I96
tp3776
I2511
s(g20
I3
I13
tp3777
I3736
s(g22
g35
S'hum."<p>'
tp3778
I1806
s(g63
S'he'
S'"the'
tp3779
I3739
s(g121
I7
I8
tp3780
I3740
s(g16
I135
tp3781
I3741
s(g195
S'-lb-'
tp3782
I3185
s(g20
I54
I3
tp3783
I3737
ssS'labelidxmap'
p3784
(dp3785
S'Reduce-NS-comparison'
p3786
I24
sS'Reduce-NS-condition'
p3787
I31
sS'Reduce-NS-purpose'
p3788
I7
sS'Reduce-NS-comment'
p3789
I10
sS'Reduce-NN-topic'
p3790
I35
sS'Reduce-NN-same'
p3791
I2
sS'Reduce-NN-textualorganization'
p3792
I4
sS'Reduce-NN-contrast'
p3793
I13
sS'Reduce-NN-sequence'
p3794
I11
sS'Reduce-NS-restatement'
p3795
I34
sS'Reduce-SN-concession'
p3796
I25
sS'Reduce-NS-evaluation'
p3797
I17
sS'Reduce-SN-antithesis'
p3798
I20
sS'Reduce-NN-question'
p3799
I30
sS'Reduce-NN-problem'
p3800
I32
sS'Reduce-SN-manner'
p3801
I33
sS'Reduce-SN-hypothetical'
p3802
I29
sS'Reduce-SN-attribution'
p3803
I6
sS'Reduce-NS-circumstance'
p3804
I14
sS'Reduce-NS-explanation'
p3805
I18
sS'Reduce-NN-comparison'
p3806
I15
sS'Reduce-NS-enablement'
p3807
I16
sS'Reduce-NS-elaboration'
p3808
I1
sS'Shift'
p3809
I0
sS'Reduce-NS-concession'
p3810
I19
sS'Reduce-SN-background'
p3811
I23
sS'Reduce-NS-interpretation'
p3812
I12
sS'Reduce-SN-circumstance'
p3813
I22
sS'Reduce-NS-attribution'
p3814
I3
sS'Reduce-NS-consequence'
p3815
I26
sS'Reduce-NS-evidence'
p3816
I21
sS'Reduce-SN-result'
p3817
I28
sS'Reduce-NS-hypothetical'
p3818
I9
sS'Reduce-SN-purpose'
p3819
I27
sS'Reduce-NN-list'
p3820
I5
sS'Reduce-NS-temporal'
p3821
I8
ss.